(dp0
S'Slope'
p1
(lp2
I28
aI20
aI2
aI4
aI6
aI10
aI16
aI19
aI39
aI40
aI39
aI41
aI2
aI5
aI9
aI8
aI10
aI13
aI16
aI20
aI18
aI22
aI25
aI20
aI13
aI7
aI7
aI1
aI16
aI12
aI10
aI4
aI21
aI12
aI11
aI29
aI21
aI3
aI4
aI7
aI19
aI37
aI38
aI38
aI40
aI1
aI1
aI8
aI10
aI12
aI12
aI18
aI15
aI15
aI16
aI17
aI17
aI16
aI10
aI11
aI12
aI9
aI10
aI5
aI8
aI13
aI15
aI21
aI2
aI2
aI2
aI10
aI9
aI25
aI30
aI22
aI6
aI10
aI18
aI20
aI9
aI11
aI12
aI13
aI12
aI17
aI16
aI14
aI12
aI11
aI16
aI14
aI17
aI13
aI9
aI9
aI8
aI11
aI4
aI10
aI14
aI13
aI13
aI19
aI2
aI2
aI4
aI24
aI30
aI23
aI4
aI8
aI9
aI12
aI14
aI16
aI17
aI19
aI8
aI14
aI13
aI14
aI13
aI16
aI16
aI14
aI12
aI10
aI14
aI13
aI17
aI15
aI30
aI29
aI15
aI11
aI7
aI11
aI9
aI1
aI6
aI13
aI15
aI15
aI15
aI17
aI2
aI2
aI4
aI4
aI12
aI11
aI8
aI11
aI4
aI6
aI8
aI24
aI29
aI23
aI11
aI14
aI16
aI16
aI16
aI16
aI15
aI15
aI15
aI19
aI17
aI14
aI12
aI13
aI13
aI18
aI18
aI1
aI24
aI32
aI32
aI17
aI14
aI13
aI7
aI11
aI11
aI2
aI8
aI14
aI16
aI16
aI14
aI1
aI1
aI2
aI5
aI4
aI2
aI13
aI12
aI8
aI8
aI8
aI7
aI8
aI25
aI27
aI24
aI15
aI16
aI15
aI15
aI16
aI17
aI17
aI15
aI17
aI17
aI16
aI16
aI18
aI17
aI19
aI18
aI2
aI30
aI36
aI32
aI8
aI18
aI8
aI11
aI8
aI20
aI18
aI15
aI0
aI3
aI10
aI15
aI16
aI3
aI4
aI4
aI3
aI1
aI9
aI6
aI8
aI7
aI8
aI19
aI17
aI19
aI18
aI11
aI13
aI15
aI9
aI3
aI1
aI8
aI36
aI39
aI24
aI11
aI17
aI9
aI12
aI25
aI21
aI21
aI22
aI14
aI0
aI5
aI13
aI17
aI16
aI3
aI3
aI4
aI2
aI2
aI8
aI5
aI11
aI16
aI8
aI7
aI9
aI8
aI22
aI18
aI18
aI19
aI18
aI17
aI17
aI12
aI35
aI39
aI35
aI10
aI8
aI2
aI3
aI3
aI1
aI2
aI8
aI2
aI10
aI28
aI40
aI38
aI13
aI13
aI21
aI21
aI23
aI21
aI12
aI1
aI9
aI15
aI17
aI3
aI2
aI7
aI11
aI20
aI12
aI5
aI5
aI9
aI9
aI8
aI19
aI19
aI18
aI18
aI18
aI18
aI18
aI29
aI41
aI44
aI44
aI14
aI9
aI1
aI3
aI3
aI1
aI2
aI6
aI45
aI45
aI10
aI5
aI8
aI16
aI24
aI34
aI42
aI12
aI14
aI22
aI18
aI11
aI17
aI11
aI16
aI11
aI6
aI9
aI10
aI9
aI8
aI13
aI19
aI19
aI19
aI19
aI19
aI19
aI18
aI16
aI37
aI43
aI43
aI47
aI16
aI14
aI9
aI0
aI3
aI3
aI0
aI2
aI5
aI12
aI41
aI46
aI45
aI9
aI2
aI17
aI27
aI32
aI37
aI37
aI13
aI2
aI10
aI22
aI21
aI15
aI8
aI14
aI10
aI11
aI10
aI10
aI9
aI14
aI20
aI20
aI20
aI18
aI19
aI18
aI44
aI43
aI16
aI18
aI15
aI15
aI1
aI3
aI3
aI0
aI2
aI5
aI12
aI45
aI44
aI44
aI34
aI10
aI6
aI12
aI29
aI37
aI37
aI36
aI14
aI10
aI12
aI22
aI23
aI19
aI11
aI3
aI18
aI16
aI3
aI9
aI11
aI6
aI11
aI8
aI3
aI13
aI11
aI4
aI4
aI4
aI8
aI21
aI21
aI21
aI20
aI17
aI17
aI43
aI42
aI16
aI21
aI19
aI16
aI16
aI3
aI3
aI1
aI2
aI6
aI14
aI3
aI3
aI2
aI2
aI2
aI2
aI2
aI2
aI3
aI8
aI5
aI6
aI10
aI11
aI10
aI8
aI6
aI6
aI7
aI9
aI8
aI13
aI15
aI15
aI15
aI14
aI13
aI17
aI16
aI3
aI5
aI6
aI6
aI4
aI4
aI14
aI15
aI16
aI17
aI19
aI19
aI18
aI18
aI18
aI18
aI18
aI16
aI14
aI13
aI12
aI11
aI10
aI8
aI6
aI6
aI6
aI5
aI4
aI4
aI5
aI6
aI6
aI4
aI3
aI5
aI8
aI11
aI10
aI9
aI7
aI5
aI5
aI5
aI6
aI7
aI4
aI5
aI5
aI3
aI5
aI9
aI11
aI11
aI7
aI6
aI8
aI9
aI9
aI10
aI10
aI13
aI16
aI17
aI15
aI13
aI12
aI9
aI5
aI3
aI2
aI3
aI4
aI4
aI3
aI4
aI6
aI8
aI11
aI14
aI17
aI22
aI30
aI34
aI30
aI26
aI27
aI26
aI11
aI8
aI8
aI8
aI10
aI16
aI14
aI11
aI10
aI10
aI13
aI16
aI14
aI11
aI10
aI11
aI7
aI2
aI3
aI5
aI6
aI8
aI10
aI9
aI10
aI12
aI14
aI16
aI20
aI21
aI15
aI11
aI10
aI13
aI21
aI19
aI17
aI14
aI10
aI40
aI51
aI44
aI42
aI42
aI36
aI30
aI26
aI1
aI15
aI13
aI6
aI13
aI12
aI36
aI36
aI33
aI35
aI32
aI27
aI24
aI21
aI23
aI27
aI27
aI23
aI21
aI22
aI23
aI24
aI24
aI26
aI26
aI24
aI22
aI13
aI17
aI20
aI21
aI20
aI18
aI16
aI15
aI13
aI14
aI14
aI14
aI14
aI14
aI13
aI12
aI12
aI13
aI14
aI15
aI16
aI19
aI20
aI20
aI15
aI13
aI13
aI13
aI13
aI34
aI39
aI39
aI31
aI25
aI31
aI30
aI18
aI15
aI10
aI14
aI13
aI11
aI26
aI27
aI28
aI29
aI28
aI25
aI25
aI26
aI23
aI17
aI18
aI18
aI16
aI12
aI10
aI10
aI12
aI16
aI18
aI16
aI16
aI20
aI17
aI10
aI9
aI16
aI10
aI3
aI9
aI9
aI10
aI10
aI20
aI11
aI10
aI9
aI7
aI7
aI4
aI3
aI4
aI4
aI5
aI6
aI6
aI7
aI8
aI8
aI9
aI12
aI10
aI11
aI9
aI6
aI1
aI1
aI1
aI1
aI2
aI2
aI2
aI2
aI1
aI0
aI1
aI4
aI5
aI5
aI5
aI9
aI12
aI13
aI11
aI12
aI13
aI9
aI7
aI4
aI6
aI3
aI3
aI3
aI2
aI2
aI1
aI2
aI2
aI2
aI2
aI3
aI6
aI2
aI2
aI7
aI10
aI6
aI6
aI8
aI12
aI10
aI5
aI4
aI4
aI6
aI9
aI7
aI10
aI9
aI9
aI12
aI13
aI15
aI17
aI16
aI16
aI19
aI10
aI13
aI5
aI5
aI4
aI3
aI13
aI14
aI16
aI17
aI19
aI19
aI17
aI17
aI18
aI19
aI17
aI14
aI13
aI12
aI11
aI10
aI9
aI8
aI7
aI6
aI6
aI5
aI5
aI7
aI8
aI7
aI5
aI3
aI1
aI1
aI8
aI9
aI9
aI7
aI6
aI3
aI3
aI5
aI5
aI5
aI8
aI10
aI12
aI13
aI13
aI11
aI9
aI8
aI10
aI10
aI10
aI10
aI11
aI14
aI15
aI16
aI14
aI14
aI13
aI8
aI4
aI3
aI3
aI3
aI3
aI4
aI4
aI5
aI7
aI7
aI9
aI14
aI18
aI24
aI28
aI31
aI29
aI26
aI26
aI25
aI7
aI6
aI10
aI14
aI17
aI10
aI8
aI11
aI15
aI14
aI12
aI6
aI8
aI12
aI9
aI4
aI2
aI3
aI6
aI7
aI8
aI10
aI9
aI9
aI11
aI15
aI17
aI18
aI18
aI17
aI18
aI16
aI17
aI23
aI26
aI25
aI19
aI12
aI17
aI28
aI44
aI50
aI43
aI45
aI44
aI36
aI31
aI1
aI1
aI1
aI4
aI16
aI15
aI8
aI14
aI16
aI27
aI24
aI22
aI25
aI25
aI20
aI17
aI18
aI18
aI8
aI7
aI2
aI1
aI0
aI1
aI1
aI1
aI1
aI0
aI0
aI1
aI0
aI12
aI12
aI12
aI13
aI14
aI15
aI14
aI14
aI15
aI15
aI14
aI16
aI17
aI19
aI20
aI19
aI3
aI2
aI1
aI0
aI0
aI1
aI0
aI1
aI0
aI0
aI0
aI0
aI0
aI0
aI0
aI0
aI0
aI0
aI0
aI1
aI1
aI0
aI2
aI2
aI2
aI3
aI2
aI2
aI4
aI5
aI6
aI7
aI8
aI8
aI4
aI2
aI3
aI6
aI8
aI11
aI15
aI20
aI6
aI6
aI7
aI8
aI10
aI10
aI5
aI6
aI11
aI8
aI9
aI8
aI8
aI11
aI11
aI9
aI6
aI6
aI7
aI8
aI8
aI15
aI14
aI14
aI17
aI18
aI15
aI14
aI11
aI1
aI15
aI14
aI10
aI10
aI9
aI8
aI6
aI4
aI5
aI5
aI3
aI3
aI6
aI6
aI4
aI5
aI7
aI4
aI4
aI5
aI5
aI7
aI6
aI5
aI4
aI2
aI1
aI2
aI2
aI2
aI4
aI4
aI4
aI2
aI2
aI5
aI6
aI5
aI7
aI4
aI2
aI1
aI1
aI2
aI2
aI1
aI1
aI0
aI0
aI2
aI3
aI5
aI8
aI10
aI10
aI11
aI8
aI7
aI8
aI2
aI2
aI3
aI3
aI4
aI4
aI4
aI4
aI4
aI4
aI4
aI4
aI4
aI4
aI4
aI4
aI4
aI7
aI7
aI6
aI7
aI10
aI10
aI10
aI10
aI10
aI10
aI9
aI10
aI10
aI11
aI12
aI12
aI13
aI13
aI12
aI12
aI12
aI12
aI12
aI13
aI12
aI11
aI8
aI7
aI6
aI6
aI6
aI7
aI7
aI7
aI7
aI8
aI10
aI10
aI9
aI8
aI8
aI7
aI7
aI4
aI1
aI1
aI1
aI1
aI1
aI1
aI1
aI1
aI1
aI1
aI1
aI12
aI13
aI14
aI15
aI14
aI13
aI13
aI17
aI15
aI14
aI16
aI21
aI18
aI15
aI16
aI20
aI22
aI20
aI17
aI4
aI2
aI1
aI1
aI0
aI0
aI0
aI0
aI0
aI0
aI0
aI0
aI0
aI0
aI0
aI0
aI1
aI0
aI0
aI0
aI1
aI0
aI1
aI2
aI2
aI1
aI1
aI1
aI1
aI3
aI5
aI6
aI5
aI4
aI1
aI11
aI2
aI5
aI7
aI9
aI13
aI17
aI23
aI6
aI6
aI6
aI5
aI5
aI9
aI13
aI4
aI7
aI10
aI9
aI8
aI7
aI9
aI9
aI3
aI4
aI6
aI7
aI15
aI0
aI13
aI15
aI17
aI16
aI15
aI14
aI8
aI7
aI15
aI10
aI13
aI14
aI11
aI9
aI9
aI9
aI8
aI5
aI3
aI7
aI7
aI5
aI5
aI7
aI7
aI4
aI3
aI7
aI10
aI4
aI1
aI4
aI6
aI7
aI5
aI4
aI3
aI2
aI2
aI2
aI2
aI3
aI4
aI3
aI2
aI1
aI2
aI6
aI8
aI6
aI7
aI5
aI2
aI2
aI2
aI2
aI2
aI2
aI1
aI1
aI0
aI1
aI3
aI5
aI7
aI9
aI11
aI10
aI9
aI12
aI11
aI9
aI1
aI2
aI2
aI3
aI3
aI4
aI4
aI3
aI3
aI3
aI3
aI3
aI3
aI4
aI4
aI4
aI4
aI4
aI4
aI5
aI6
aI9
aI9
aI10
aI11
aI11
aI10
aI9
aI10
aI10
aI9
aI9
aI9
aI9
aI9
aI10
aI12
aI14
aI14
aI12
aI11
aI11
aI10
aI7
aI6
aI6
aI5
aI5
aI5
aI6
aI7
aI6
aI7
aI10
aI10
aI7
aI12
aI9
aI8
aI7
aI4
aI2
aI1
aI1
aI1
aI1
aI1
aI1
aI0
aI0
aI1
aI0
aI1
aI1
aI13
aI15
aI16
aI16
aI14
aI14
aI14
aI15
aI15
aI15
aI18
aI23
aI28
aI13
aI15
aI17
aI14
aI15
aI22
aI21
aI16
aI16
aI6
aI7
aI9
aI7
aI4
aI2
aI1
aI1
aI0
aI0
aI0
aI0
aI0
aI1
aI0
aI0
aI0
aI9
aI4
aI1
aI2
aI3
aI7
aI12
aI16
aI19
aI21
aI29
aI21
aI11
aI13
aI14
aI14
aI13
aI7
aI11
aI15
aI21
aI20
aI14
aI13
aI18
aI17
aI7
aI8
aI8
aI8
aI10
aI14
aI14
aI14
aI12
aI9
aI11
aI14
aI12
aI12
aI12
aI13
aI26
aI13
aI14
aI19
aI12
aI8
aI4
aI0
aI0
aI0
aI1
aI1
aI1
aI2
aI19
aI22
aI24
aI29
aI29
aI23
aI22
aI14
aI10
aI9
aI23
aI23
aI17
aI16
aI16
aI15
aI16
aI18
aI17
aI19
aI18
aI16
aI17
aI18
aI19
aI24
aI27
aI21
aI35
aI37
aI39
aI24
aI24
aI12
aI7
aI10
aI5
aI8
aI11
aI19
aI27
aI27
aI27
aI26
aI30
aI33
aI35
aI42
aI44
aI44
aI47
aI46
aI43
aI42
aI45
aI46
aI43
aI14
aI17
aI18
aI22
aI29
aI32
aI33
aI32
aI32
aI36
aI40
aI43
aI43
aI31
aI26
aI30
aI30
aI38
aI19
aI19
aI20
aI19
aI20
aI24
aI23
aI18
aI23
aI30
aI25
aI25
aI20
aI16
aI14
aI12
aI11
aI12
aI10
aI8
aI7
aI3
aI7
aI8
aI8
aI7
aI4
aI11
aI9
aI7
aI9
aI11
aI15
aI17
aI16
aI7
aI0
aI0
aI0
aI0
aI0
aI0
aI0
aI0
aI0
aI0
aI3
aI6
aI3
aI0
aI5
aI5
aI5
aI5
aI6
aI5
aI5
aI6
aI4
aI0
aI1
aI4
aI7
aI10
aI30
aI23
aI20
aI19
aI16
aI9
aI3
aI11
aI11
aI10
aI15
aI15
aI4
aI8
aI15
aI18
aI13
aI17
aI17
aI10
aI8
aI8
aI10
aI11
aI13
aI12
aI11
aI10
aI11
aI13
aI11
aI12
aI13
aI12
aI13
aI26
aI13
aI16
aI13
aI24
aI17
aI11
aI8
aI1
aI1
aI1
aI1
aI26
aI27
aI28
aI25
aI22
aI32
aI29
aI27
aI25
aI6
aI19
aI22
aI18
aI13
aI14
aI15
aI15
aI15
aI16
aI15
aI15
aI14
aI16
aI15
aI18
aI18
aI17
aI18
aI18
aI17
aI21
aI22
aI20
aI39
aI37
aI33
aI24
aI22
aI18
aI15
aI15
aI10
aI8
aI5
aI6
aI15
aI23
aI28
aI27
aI27
aI25
aI30
aI32
aI37
aI44
aI44
aI46
aI48
aI44
aI42
aI41
aI41
aI9
aI12
aI14
aI19
aI23
aI26
aI27
aI28
aI30
aI32
aI34
aI35
aI36
aI38
aI29
aI29
aI19
aI19
aI19
aI19
aI19
aI23
aI27
aI26
aI30
aI31
aI25
aI23
aI20
aI16
aI14
aI12
aI10
aI10
aI10
aI10
aI10
aI5
aI6
aI7
aI8
aI6
aI12
aI11
aI8
aI6
aI8
aI10
aI13
aI16
aI19
aI12
aI1
aI0
aI0
aI0
aI0
aI0
aI0
aI0
aI0
aI8
aI4
aI1
aI5
aI6
aI12
aI11
aI10
aI10
aI6
aI3
aI1
aI1
aI0
aI5
aI0
aI1
aI3
aI10
aI9
aI10
aI11
aI10
aI9
aI5
aI5
aI5
aI5
aI15
aI11
aI16
aI16
aI22
aI19
aI14
aI9
aI10
aI9
aI9
aI12
aI12
aI12
aI10
aI10
aI10
aI11
aI11
aI11
aI10
aI13
aI14
aI15
aI15
aI20
aI17
aI1
aI1
aI1
aI1
aI27
aI23
aI22
aI27
aI24
aI22
aI19
aI3
aI17
aI20
aI17
aI15
aI13
aI13
aI15
aI15
aI15
aI15
aI14
aI14
aI14
aI14
aI15
aI19
aI19
aI18
aI17
aI20
aI19
aI24
aI23
aI41
aI37
aI35
aI27
aI20
aI17
aI14
aI15
aI12
aI8
aI6
aI4
aI17
aI27
aI31
aI27
aI24
aI25
aI31
aI31
aI39
aI46
aI44
aI47
aI48
aI42
aI39
aI32
aI32
aI31
aI7
aI10
aI14
aI18
aI22
aI24
aI26
aI27
aI31
aI36
aI35
aI34
aI37
aI41
aI41
aI4
aI4
aI3
aI2
aI2
aI7
aI3
aI5
aI6
aI4
aI4
aI4
aI4
aI4
aI4
aI4
aI3
aI3
aI4
aI6
aI6
aI6
aI5
aI5
aI5
aI4
aI4
aI2
aI1
aI1
aI11
aI10
aI12
aI7
aI4
aI8
aI11
aI2
aI6
aI9
aI8
aI8
aI7
aI8
aI11
aI13
aI10
aI8
aI9
aI8
aI6
aI5
aI6
aI10
aI13
aI14
aI14
aI14
aI15
aI15
aI14
aI14
aI13
aI14
aI14
aI12
aI10
aI8
aI7
aI7
aI8
aI8
aI7
aI7
aI6
aI5
aI3
aI2
aI11
aI9
aI9
aI8
aI9
aI11
aI12
aI9
aI8
aI7
aI7
aI8
aI8
aI8
aI8
aI7
aI7
aI7
aI17
aI13
aI11
aI10
aI9
aI7
aI6
aI6
aI6
aI6
aI5
aI5
aI5
aI5
aI5
aI6
aI7
aI8
aI8
aI9
aI9
aI10
aI10
aI11
aI10
aI10
aI11
aI11
aI11
aI10
aI11
aI11
aI11
aI11
aI10
aI10
aI9
aI8
aI8
aI8
aI8
aI8
aI8
aI8
aI9
aI9
aI10
aI10
aI10
aI10
aI10
aI10
aI9
aI8
aI6
aI6
aI5
aI5
aI6
aI6
aI7
aI7
aI8
aI8
aI9
aI9
aI10
aI11
aI10
aI9
aI8
aI7
aI6
aI5
aI4
aI4
aI4
aI4
aI6
aI8
aI10
aI13
aI14
aI14
aI15
aI15
aI14
aI11
aI8
aI6
aI6
aI6
aI7
aI6
aI7
aI7
aI7
aI8
aI7
aI7
aI7
aI8
aI8
aI8
aI8
aI8
aI9
aI11
aI14
aI9
aI0
aI0
aI0
aI0
aI0
aI0
aI0
aI0
aI5
aI3
aI9
aI9
aI10
aI13
aI3
aI5
aI5
aI4
aI4
aI2
aI3
aI5
aI7
aI7
aI6
aI6
aI7
aI9
aI10
aI9
aI8
aI6
aI4
aI3
aI3
aI2
aI1
aI1
aI14
aI4
aI5
aI4
aI5
aI4
aI5
aI8
aI12
aI8
aI8
aI7
aI8
aI11
aI10
aI9
aI6
aI5
aI7
aI9
aI9
aI7
aI13
aI12
aI10
aI8
aI7
aI7
aI8
aI8
aI8
aI7
aI7
aI7
aI6
aI4
aI3
aI9
aI9
aI8
aI9
aI11
aI10
aI10
aI9
aI9
aI9
aI11
aI12
aI10
aI8
aI7
aI8
aI9
aI9
aI9
aI8
aI9
aI10
aI9
aI8
aI21
aI15
aI11
aI10
aI9
aI8
aI6
aI6
aI6
aI5
aI6
aI6
aI5
aI5
aI6
aI6
aI6
aI8
aI9
aI9
aI9
aI10
aI10
aI11
aI11
aI12
aI13
aI14
aI13
aI12
aI11
aI11
aI10
aI10
aI9
aI9
aI10
aI10
aI10
aI9
aI8
aI8
aI8
aI8
aI8
aI8
aI8
aI9
aI8
aI8
aI8
aI9
aI10
aI10
aI9
aI7
aI6
aI5
aI5
aI4
aI4
aI4
aI4
aI5
aI6
aI7
aI8
aI10
aI11
aI10
aI9
aI7
aI7
aI6
aI5
aI4
aI4
aI4
aI4
aI6
aI8
aI10
aI11
aI10
aI10
aI12
aI15
aI16
aI17
aI16
aI12
aI9
aI7
aI7
aI6
aI8
aI8
aI8
aI7
aI7
aI7
aI7
aI7
aI7
aI7
aI7
aI7
aI10
aI13
aI14
aI0
aI0
aI0
aI0
aI0
aI0
aI0
aI0
aI0
aI6
aI6
aI8
aI11
aI5
aI5
aI5
aI4
aI1
aI4
aI6
aI9
aI11
aI11
aI10
aI9
aI9
aI9
aI10
aI10
aI10
aI7
aI3
aI1
aI0
aI1
aI3
aI15
aI11
aI9
aI5
aI3
aI1
aI0
aI3
aI7
aI9
aI10
aI9
aI6
aI5
aI5
aI3
aI3
aI11
aI9
aI8
aI7
aI7
aI7
aI7
aI8
aI8
aI7
aI7
aI8
aI9
aI8
aI7
aI7
aI8
aI10
aI11
aI11
aI11
aI9
aI9
aI10
aI9
aI10
aI11
aI11
aI10
aI9
aI8
aI9
aI2
aI3
aI3
aI5
aI15
aI15
aI13
aI10
aI7
aI7
aI6
aI6
aI4
aI2
aI1
aI2
aI4
aI3
aI2
aI2
aI4
aI5
aI5
aI5
aI3
aI10
aI10
aI8
aI3
aI6
aI7
aI8
aI12
aI18
aI17
aI12
aI11
aI13
aI11
aI10
aI19
aI23
aI17
aI14
aI15
aI23
aI25
aI26
aI26
aI26
aI26
aI21
aI20
aI20
aI17
aI6
aI10
aI13
aI17
aI20
aI20
aI20
aI19
aI17
aI14
aI13
aI13
aI12
aI12
aI15
aI16
aI17
aI18
aI12
aI7
aI8
aI11
aI12
aI12
aI11
aI12
aI13
aI12
aI12
aI11
aI11
aI11
aI12
aI14
aI11
aI5
aI1
aI2
aI4
aI7
aI10
aI15
aI19
aI19
aI19
aI19
aI18
aI16
aI14
aI13
aI10
aI5
aI2
aI5
aI10
aI13
aI12
aI10
aI10
aI13
aI15
aI15
aI15
aI13
aI14
aI14
aI14
aI11
aI16
aI22
aI15
aI7
aI11
aI12
aI12
aI4
aI3
aI6
aI9
aI11
aI12
aI12
aI11
aI12
aI13
aI12
aI8
aI14
aI5
aI16
aI15
aI15
aI15
aI15
aI15
aI14
aI13
aI13
aI14
aI13
aI11
aI9
aI9
aI10
aI11
aI10
aI10
aI11
aI10
aI8
aI7
aI6
aI5
aI5
aI6
aI8
aI9
aI9
aI9
aI8
aI6
aI7
aI6
aI6
aI8
aI8
aI9
aI9
aI9
aI8
aI9
aI11
aI13
aI14
aI12
aI11
aI12
aI13
aI13
aI12
aI22
aI23
aI21
aI5
aI7
aI10
aI16
aI14
aI12
aI12
aI16
aI22
aI23
aI25
aI29
aI24
aI12
aI7
aI12
aI23
aI29
aI27
aI27
aI26
aI21
aI18
aI19
aI18
aI18
aI14
aI12
aI16
aI18
aI22
aI25
aI27
aI25
aI21
aI21
aI21
aI22
aI21
aI21
aI25
aI28
aI25
aI19
aI17
aI18
aI23
aI23
aI22
aI22
aI23
aI24
aI24
aI23
aI19
aI11
aI14
aI19
aI26
aI29
aI26
aI21
aI17
aI23
aI21
aI21
aI24
aI20
aI17
aI17
aI14
aI9
aI7
aI8
aI13
aI24
aI30
aI30
aI27
aI19
aI2
aI1
aI7
aI6
aI10
aI13
aI14
aI15
aI21
aI29
aI12
aI11
aI10
aI10
aI8
aI6
aI6
aI6
aI6
aI6
aI5
aI4
aI4
aI5
aI8
aI6
aI7
aI8
aI4
aI3
aI4
aI3
aI2
aI1
aI2
aI4
aI5
aI8
aI18
aI22
aI18
aI11
aI7
aI6
aI4
aI4
aI2
aI4
aI6
aI11
aI12
aI11
aI14
aI7
aI6
aI4
aI5
aI6
aI6
aI7
aI5
aI5
aI9
aI13
aI14
aI13
aI10
aI11
aI11
aI9
aI13
aI16
aI15
aI10
aI11
aI10
aI17
aI26
aI29
aI31
aI31
aI30
aI28
aI25
aI20
aI17
aI20
aI23
aI22
aI10
aI16
aI15
aI16
aI17
aI16
aI19
aI38
aI37
aI32
aI21
aI15
aI48
aI48
aI47
aI46
aI40
aI39
aI37
aI33
aI30
aI29
aI25
aI22
aI18
aI41
aI44
aI44
aI46
aI46
aI49
aI51
aI50
aI52
aI53
aI48
aI41
aI46
aI48
aI43
aI34
aI31
aI23
aI26
aI29
aI29
aI25
aI21
aI24
aI24
aI28
aI28
aI22
aI34
aI35
aI33
aI27
aI7
aI6
aI6
aI13
aI16
aI8
aI2
aI4
aI6
aI5
aI6
aI14
aI21
aI22
aI20
aI15
aI23
aI17
aI14
aI14
aI16
aI15
aI13
aI11
aI7
aI4
aI4
aI20
aI13
aI6
aI6
aI11
aI18
aI17
aI13
aI17
aI15
aI10
aI8
aI7
aI4
aI3
aI2
aI4
aI4
aI4
aI3
aI3
aI2
aI6
aI4
aI1
aI0
aI0
aI0
aI0
aI0
aI0
aI0
aI0
aI0
aI0
aI0
aI0
aI0
aI0
aI0
aI0
aI0
aI0
aI0
aI0
aI0
aI0
aI0
aI0
aI11
aI5
aI1
aI3
aI20
aI19
aI21
aI22
aI24
aI26
aI28
aI29
aI31
aI31
aI31
aI32
aI33
aI33
aI14
aI12
aI10
aI10
aI10
aI11
aI12
aI12
aI11
aI9
aI7
aI7
aI8
aI10
aI11
aI11
aI11
aI13
aI13
aI11
aI13
aI16
aI19
aI18
aI17
aI17
aI16
aI16
aI16
aI17
aI20
aI25
aI30
aI34
aI36
aI39
aI41
aI42
aI41
aI40
aI38
aI36
aI34
aI30
aI31
aI34
aI35
aI31
aI29
aI28
aI23
aI17
aI11
aI5
aI7
aI7
aI7
aI8
aI5
aI2
aI3
aI5
aI5
aI3
aI0
aI1
aI2
aI4
aI6
aI8
aI7
aI5
aI7
aI8
aI8
aI11
aI12
aI11
aI9
aI6
aI8
aI11
aI12
aI12
aI12
aI13
aI15
aI16
aI16
aI16
aI16
aI14
aI13
aI12
aI14
aI15
aI16
aI17
aI16
aI12
aI11
aI10
aI12
aI16
aI16
aI18
aI20
aI20
aI14
aI9
aI8
aI7
aI3
aI1
aI1
aI3
aI6
aI8
aI9
aI10
aI10
aI7
aI3
aI1
aI3
aI7
aI9
aI8
aI5
aI5
aI8
aI8
aI6
aI5
aI5
aI5
aI4
aI4
aI4
aI5
aI5
aI7
aI5
aI6
aI7
aI7
aI8
aI5
aI2
aI2
aI3
aI10
aI13
aI10
aI9
aI9
aI9
aI9
aI11
aI13
aI8
aI7
aI11
aI13
aI10
aI6
aI5
aI6
aI7
aI7
aI8
aI8
aI9
aI11
aI12
aI13
aI15
aI17
aI18
aI19
aI18
aI16
aI14
aI13
aI14
aI16
aI16
aI15
aI16
aI20
aI18
aI15
aI16
aI18
aI20
aI21
aI21
aI21
aI21
aI20
aI20
aI20
aI19
aI17
aI14
aI12
aI12
aI12
aI11
aI11
aI11
aI10
aI11
aI13
aI14
aI10
aI11
aI19
aI22
aI21
aI20
aI18
aI24
aI28
aI31
aI32
aI32
aI28
aI22
aI19
aI17
aI22
aI24
aI14
aI14
aI24
aI31
aI30
aI23
aI16
aI10
aI5
aI16
aI33
aI37
aI31
aI24
aI25
aI22
aI21
aI19
aI18
aI17
aI18
aI20
aI22
aI25
aI28
aI27
aI25
aI23
aI24
aI26
aI28
aI29
aI28
aI27
aI28
aI29
aI30
aI25
aI17
aI10
aI10
aI13
aI14
aI12
aI9
aI8
aI8
aI9
aI15
aI20
aI24
aI26
aI29
aI30
aI30
aI31
aI28
aI23
aI19
aI20
aI21
aI21
aI20
aI21
aI22
aI23
aI25
aI27
aI27
aI27
aI27
aI27
aI28
aI28
aI28
aI27
aI24
aI23
aI25
aI27
aI35
aI39
aI27
aI10
aI7
aI7
aI11
aI16
aI18
aI17
aI17
aI19
aI19
aI21
aI21
aI24
aI27
aI32
aI36
aI38
aI37
aI34
aI37
aI37
aI41
aI39
aI36
aI36
aI33
aI27
aI20
aI13
aI5
aI7
aI18
aI24
aI24
aI24
aI22
aI16
aI11
aI9
aI9
aI9
aI7
aI3
aI1
aI3
aI5
aI10
aI16
aI21
aI24
aI24
aI23
aI21
aI19
aI18
aI19
aI20
aI20
aI19
aI20
aI18
aI18
aI18
aI20
aI23
aI29
aI36
aI35
aI20
aI14
aI18
aI19
aI25
aI13
aI15
aI16
aI15
aI15
aI16
aI17
aI18
aI19
aI20
aI20
aI20
aI22
aI24
aI27
aI30
aI34
aI35
aI34
aI8
aI8
aI9
aI12
aI14
aI14
aI13
aI12
aI12
aI9
aI7
aI6
aI7
aI9
aI11
aI11
aI11
aI14
aI15
aI14
aI14
aI16
aI19
aI20
aI20
aI19
aI18
aI16
aI16
aI16
aI18
aI22
aI26
aI30
aI32
aI34
aI36
aI37
aI36
aI35
aI31
aI25
aI16
aI20
aI30
aI41
aI40
aI30
aI28
aI23
aI16
aI16
aI17
aI17
aI15
aI11
aI8
aI8
aI3
aI0
aI1
aI2
aI5
aI4
aI2
aI2
aI1
aI2
aI4
aI7
aI9
aI8
aI6
aI7
aI5
aI5
aI18
aI23
aI13
aI18
aI9
aI19
aI12
aI16
aI19
aI31
aI25
aI37
aI30
aI6
aI41
aI14
aI17
aI9
aI10
aI5
aI4
aI3
aI3
aI5
aI5
aI4
aI6
aI16
aI15
aI1
aI3
aI2
aI1
aI33
aI31
aI30
aI32
aI22
aI23
aI25
aI26
aI25
aI19
aI5
aI26
aI30
aI25
aI27
aI7
aI7
aI7
aI9
aI4
aI3
aI2
aI1
aI0
aI0
aI1
aI1
aI1
aI3
aI5
aI34
aI34
aI33
aI32
aI31
aI0
aI1
aI3
aI5
aI6
aI37
aI36
aI35
aI34
aI32
aI31
aI0
aI0
aI3
aI4
aI3
aI3
aI34
aI33
aI33
aI31
aI29
aI29
aI0
aI1
aI5
aI31
aI30
aI29
aI29
aI29
aI28
aI2
aI30
aI29
aI28
aI26
aI25
aI1
aI31
aI29
aI27
aI25
aI23
aI21
aI0
aI30
aI30
aI30
aI27
aI25
aI22
aI20
aI19
aI1
aI30
aI29
aI28
aI26
aI24
aI22
aI19
aI17
aI0
aI4
aI30
aI28
aI27
aI26
aI22
aI18
aI15
aI11
aI11
aI1
aI11
aI1
aI23
aI17
aI4
aI10
aI9
aI12
aI1
aI3
aI11
aI8
aI4
aI9
aI17
aI9
aI6
aI7
aI6
aI36
aI8
aI6
aI3
aI10
aI11
aI10
aI5
aI12
aI12
aI8
aI6
aI15
aI14
aI8
aI5
aI6
aI5
aI10
aI12
aI11
aI12
aI20
aI20
aI15
aI9
aI7
aI10
aI18
aI22
aI23
aI19
aI15
aI19
aI23
aI24
aI12
aI15
aI15
aI22
aI22
aI19
aI17
aI17
aI19
aI22
aI23
aI21
aI17
aI6
aI13
aI18
aI19
aI18
aI22
aI20
aI17
aI17
aI8
aI16
aI20
aI22
aI24
aI25
aI26
aI27
aI23
aI18
aI15
aI16
aI35
aI26
aI19
aI16
aI16
aI19
aI28
aI25
aI24
aI25
aI27
aI31
aI28
aI29
aI29
aI29
aI31
aI24
aI27
aI17
aI26
aI19
aI12
aI19
aI14
aI12
aI13
aI3
aI0
aI7
aI6
aI40
aI40
aI38
aI31
aI35
aI33
aI30
aI26
aI22
aI21
aI17
aI31
aI33
aI32
aI29
aI34
aI34
aI25
aI32
aI34
aI30
aI33
aI1
aI1
aI2
aI0
aI0
aI2
aI0
aI0
aI0
aI0
aI0
aI0
aI0
aI38
aI0
aI0
aI39
aI0
aI0
aI40
aI0
aI0
aI0
aI0
aI0
aI0
aI0
aI0
aI0
aI0
aI0
aI0
aI0
aI8
aI8
aI43
aI45
aI8
aI45
aI45
aI43
aI44
aI41
aI29
aI38
aI26
aI35
aI37
aI21
aI29
aI48
aI16
aI31
aI42
aI47
aI48
aI22
aI38
aI44
aI41
aI42
aI43
aI48
aI48
aI1
aI31
aI40
aI44
aI43
aI45
aI46
aI46
aI33
aI1
aI1
aI30
aI37
aI41
aI44
aI47
aI48
aI35
aI38
aI42
aI46
aI49
aI46
aI40
aI38
aI43
aI48
aI48
aI42
aI42
aI3
aI41
aI45
aI49
aI45
aI39
aI48
aI49
aI48
aI41
aI43
aI48
aI48
aI51
aI54
aI8
aI7
aI5
aI7
aI8
aI5
aI4
aI0
aI0
aI3
aI4
aI5
aI2
aI2
aI5
aI6
aI8
aI10
aI10
aI9
aI10
aI9
aI6
aI5
aI3
aI2
aI3
aI46
aI32
aI23
aI23
aI37
aI7
aI7
aI9
aI11
aI12
aI10
aI10
aI9
aI7
aI7
aI8
aI9
aI9
aI10
aI11
aI10
aI9
aI8
aI3
aI1
aI2
aI46
aI37
aI30
aI21
aI20
aI21
aI22
aI25
aI30
aI35
aI35
aI28
aI24
aI7
aI6
aI7
aI11
aI15
aI17
aI15
aI5
aI5
aI5
aI7
aI9
aI10
aI8
aI8
aI8
aI5
aI3
aI3
aI46
aI8
aI17
aI19
aI18
aI18
aI18
aI17
aI16
aI21
aI29
aI12
aI8
aI8
aI2
aI3
aI5
aI9
aI10
aI1
aI2
aI6
aI3
aI5
aI12
aI0
aI0
aI6
aI9
aI9
aI4
aI4
aI10
aI4
aI0
aI0
aI9
aI9
aI3
aI4
aI0
aI0
aI0
aI0
aI7
aI0
aI0
aI0
aI0
aI8
aI14
aI0
aI0
aI0
aI0
aI0
aI11
aI0
aI0
aI0
aI0
aI0
aI13
aI0
aI0
aI0
aI0
aI0
aI8
aI6
aI6
aI24
aI24
aI31
aI22
aI18
aI28
aI27
aI8
aI19
aI28
aI30
aI7
aI18
aI27
aI29
aI9
aI8
aI16
aI24
aI26
aI11
aI22
aI23
aI11
aI19
aI21
aI14
aI11
aI20
aI1
aI2
aI5
aI4
aI9
aI9
aI4
aI9
aI9
aI9
aI10
aI9
aI10
aI3
aI9
aI10
aI10
aI3
aI4
aI4
aI3
aI4
aI5
aI10
aI7
aI6
aI1
aI1
aI1
aI2
aI3
aI2
aI3
aI2
aI2
aI4
aI2
aI3
aI2
aI2
aI3
aI0
aI0
aI2
aI17
aI4
aI11
aI13
aI5
aI11
aI11
aI12
aI5
aI6
aI5
aI9
aI9
aI2
aI2
aI0
aI0
aI2
aI2
aI0
aI1
aI3
aI2
aI1
aI3
aI2
aI1
aI1
aI0
aI0
aI1
aI3
aI5
aI7
aI10
aI1
aI12
aI13
aI14
aI16
aI8
aI3
aI7
aI1
aI3
aI7
aI6
aI0
aI0
aI1
aI4
aI4
aI3
aI7
aI6
aI4
aI2
aI1
aI1
aI5
aI1
aI4
aI2
aI4
aI6
aI4
aI4
aI4
aI5
aI4
aI3
aI9
aI9
aI7
aI4
aI1
aI1
aI4
aI2
aI5
aI5
aI6
aI3
aI0
aI0
aI0
aI0
aI5
aI3
aI2
aI2
aI3
aI2
aI1
aI1
aI0
aI0
aI1
aI2
aI3
aI2
aI1
aI1
aI1
aI1
aI2
aI4
aI3
aI3
aI2
aI2
aI3
aI4
aI4
aI5
aI4
aI1
aI1
aI1
aI2
aI3
aI3
aI24
aI22
aI21
aI13
aI11
aI10
aI8
aI14
aI11
aI11
aI12
aI9
aI1
aI11
aI8
aI6
aI6
aI4
aI3
aI1
aI14
aI10
aI2
aI11
aI1
aI11
aI5
aI7
aI24
aI11
aI10
aI11
aI8
aI7
aI15
aI15
aI23
aI18
aI10
aI5
aI8
aI9
aI11
aI11
aI8
aI4
aI6
aI1
aI8
aI9
aI6
aI2
aI0
aI0
aI2
aI3
aI3
aI2
aI7
aI1
aI6
aI7
aI10
aI1
aI1
aI1
aI1
aI1
aI7
aI0
aI0
aI1
aI2
aI3
aI4
aI5
aI1
aI2
aI1
aI1
aI6
aI12
aI3
aI2
aI0
aI3
aI1
aI8
aI15
aI9
aI10
aI13
aI10
aI8
aI1
aI3
aI2
aI1
aI1
aI1
aI2
aI5
aI9
aI16
aI10
aI7
aI12
aI11
aI8
aI4
aI5
aI4
aI0
aI0
aI0
aI1
aI10
aI15
aI10
aI6
aI11
aI11
aI7
aI2
aI1
aI2
aI9
aI11
aI12
aI9
aI7
aI8
aI9
aI8
aI2
aI2
aI3
aI9
aI9
aI9
aI8
aI8
aI8
aI7
aI9
aI8
aI6
aI4
aI4
aI5
aI4
aI6
aI7
aI6
aI4
aI3
aI4
aI4
aI4
aI3
aI3
aI6
aI3
aI2
aI3
aI3
aI4
aI3
aI3
aI4
aI3
aI3
aI6
aI12
aI12
aI2
aI3
aI3
aI4
aI4
aI5
aI6
aI8
aI9
aI7
aI16
aI2
aI2
aI2
aI3
aI3
aI3
aI3
aI4
aI5
aI9
aI16
aI16
aI6
aI9
aI2
aI2
aI2
aI3
aI3
aI4
aI3
aI3
aI4
aI5
aI13
aI19
aI16
aI19
aI16
aI13
aI2
aI1
aI3
aI10
aI9
aI3
aI3
aI2
aI2
aI4
aI5
aI4
aI4
aI3
aI3
aI4
aI13
aI18
aI5
aI8
aI7
aI8
aI9
aI10
aI2
aI1
aI4
aI11
aI1
aI2
aI2
aI1
aI1
aI4
aI6
aI6
aI5
asS'Elevation'
p3
(lp4
I12
aI11
aI10
aI11
aI11
aI11
aI14
aI15
aI25
aI23
aI21
aI19
aI7
aI6
aI7
aI8
aI9
aI14
aI14
aI13
aI11
aI10
aI9
aI8
aI6
aI5
aI5
aI3
aI4
aI12
aI12
aI14
aI15
aI15
aI15
aI12
aI11
aI10
aI11
aI11
aI15
aI25
aI23
aI21
aI19
aI7
aI7
aI7
aI9
aI9
aI10
aI37
aI38
aI13
aI13
aI7
aI7
aI6
aI5
aI12
aI12
aI12
aI12
aI12
aI19
aI18
aI15
aI16
aI10
aI10
aI9
aI15
aI15
aI13
aI12
aI11
aI11
aI11
aI15
aI16
aI7
aI8
aI9
aI9
aI10
aI38
aI38
aI38
aI38
aI38
aI7
aI7
aI6
aI5
aI11
aI12
aI12
aI12
aI19
aI19
aI18
aI18
aI17
aI15
aI10
aI9
aI9
aI13
aI12
aI11
aI10
aI11
aI14
aI14
aI14
aI15
aI16
aI16
aI7
aI9
aI9
aI10
aI10
aI38
aI39
aI39
aI39
aI39
aI8
aI7
aI6
aI6
aI13
aI12
aI11
aI11
aI12
aI12
aI11
aI19
aI19
aI19
aI18
aI18
aI17
aI16
aI10
aI9
aI9
aI9
aI16
aI15
aI14
aI14
aI13
aI13
aI13
aI13
aI12
aI11
aI14
aI15
aI15
aI16
aI16
aI9
aI9
aI10
aI10
aI39
aI39
aI39
aI39
aI8
aI7
aI7
aI6
aI3
aI13
aI13
aI11
aI10
aI10
aI11
aI12
aI11
aI11
aI19
aI19
aI18
aI18
aI17
aI16
aI10
aI9
aI9
aI9
aI9
aI9
aI16
aI15
aI15
aI14
aI14
aI13
aI13
aI13
aI12
aI11
aI15
aI16
aI16
aI17
aI17
aI18
aI18
aI19
aI10
aI10
aI11
aI39
aI40
aI40
aI7
aI6
aI3
aI13
aI12
aI10
aI9
aI11
aI11
aI11
aI11
aI12
aI11
aI10
aI19
aI19
aI19
aI18
aI18
aI9
aI9
aI9
aI9
aI9
aI13
aI12
aI14
aI13
aI13
aI21
aI21
aI10
aI11
aI39
aI40
aI40
aI9
aI3
aI3
aI14
aI13
aI11
aI10
aI9
aI11
aI11
aI10
aI13
aI12
aI12
aI11
aI10
aI19
aI19
aI19
aI18
aI17
aI9
aI9
aI9
aI9
aI9
aI13
aI13
aI12
aI12
aI14
aI13
aI13
aI14
aI22
aI9
aI9
aI10
aI11
aI12
aI14
aI39
aI35
aI34
aI34
aI9
aI8
aI3
aI3
aI3
aI3
aI3
aI14
aI14
aI14
aI14
aI13
aI10
aI10
aI10
aI14
aI13
aI12
aI11
aI10
aI19
aI19
aI18
aI18
aI9
aI9
aI13
aI12
aI12
aI11
aI13
aI12
aI13
aI13
aI13
aI11
aI11
aI12
aI13
aI13
aI14
aI14
aI36
aI37
aI37
aI36
aI9
aI8
aI3
aI3
aI3
aI3
aI3
aI3
aI7
aI9
aI13
aI14
aI14
aI13
aI13
aI13
aI11
aI10
aI10
aI11
aI11
aI10
aI18
aI13
aI12
aI11
aI12
aI12
aI13
aI13
aI14
aI11
aI10
aI11
aI12
aI12
aI13
aI14
aI14
aI15
aI37
aI39
aI39
aI38
aI9
aI8
aI8
aI3
aI3
aI3
aI3
aI3
aI3
aI4
aI6
aI8
aI10
aI14
aI14
aI14
aI13
aI12
aI11
aI10
aI9
aI14
aI14
aI12
aI11
aI10
aI13
aI13
aI12
aI12
aI14
aI13
aI14
aI11
aI11
aI11
aI12
aI13
aI13
aI14
aI41
aI42
aI9
aI8
aI8
aI7
aI3
aI3
aI3
aI3
aI3
aI3
aI4
aI7
aI10
aI11
aI14
aI13
aI14
aI14
aI13
aI12
aI10
aI10
aI9
aI14
aI14
aI12
aI11
aI10
aI10
aI9
aI18
aI17
aI13
aI13
aI13
aI12
aI13
aI13
aI12
aI13
aI14
aI6
aI7
aI7
aI7
aI10
aI11
aI12
aI13
aI13
aI14
aI43
aI44
aI9
aI9
aI8
aI7
aI6
aI3
aI3
aI3
aI3
aI3
aI4
aI20
aI20
aI20
aI21
aI21
aI21
aI21
aI21
aI21
aI23
aI24
aI24
aI24
aI25
aI25
aI25
aI26
aI26
aI26
aI26
aI27
aI42
aI41
aI41
aI40
aI40
aI15
aI14
aI13
aI13
aI13
aI13
aI14
aI14
aI14
aI20
aI20
aI21
aI21
aI22
aI22
aI23
aI24
aI24
aI25
aI26
aI26
aI27
aI27
aI28
aI28
aI28
aI29
aI29
aI29
aI29
aI29
aI29
aI29
aI29
aI29
aI30
aI30
aI30
aI30
aI30
aI30
aI31
aI31
aI31
aI31
aI31
aI31
aI31
aI31
aI31
aI31
aI31
aI31
aI31
aI31
aI31
aI30
aI30
aI30
aI29
aI29
aI29
aI29
aI29
aI29
aI28
aI28
aI27
aI27
aI26
aI26
aI25
aI25
aI25
aI25
aI25
aI25
aI25
aI25
aI24
aI24
aI24
aI23
aI23
aI22
aI21
aI19
aI18
aI15
aI14
aI13
aI12
aI13
aI13
aI13
aI13
aI16
aI31
aI30
aI30
aI30
aI29
aI29
aI28
aI28
aI27
aI27
aI27
aI26
aI26
aI27
aI27
aI27
aI27
aI28
aI28
aI29
aI29
aI30
aI30
aI31
aI32
aI33
aI33
aI33
aI34
aI35
aI35
aI35
aI35
aI32
aI29
aI26
aI17
aI15
aI13
aI11
aI10
aI6
aI7
aI8
aI8
aI12
aI12
aI22
aI24
aI25
aI26
aI26
aI27
aI27
aI28
aI28
aI28
aI29
aI30
aI30
aI30
aI31
aI31
aI32
aI33
aI33
aI34
aI35
aI35
aI35
aI35
aI34
aI34
aI34
aI34
aI34
aI34
aI34
aI34
aI34
aI34
aI34
aI35
aI35
aI35
aI35
aI35
aI36
aI36
aI36
aI36
aI36
aI37
aI37
aI37
aI37
aI37
aI5
aI7
aI8
aI10
aI11
aI11
aI13
aI14
aI14
aI15
aI15
aI13
aI12
aI14
aI15
aI16
aI17
aI18
aI19
aI18
aI18
aI16
aI16
aI15
aI15
aI15
aI14
aI14
aI15
aI15
aI15
aI14
aI14
aI13
aI12
aI12
aI11
aI11
aI11
aI10
aI10
aI15
aI15
aI15
aI15
aI16
aI17
aI17
aI18
aI18
aI18
aI19
aI19
aI18
aI18
aI18
aI18
aI18
aI18
aI17
aI17
aI17
aI16
aI11
aI11
aI10
aI10
aI9
aI10
aI10
aI10
aI10
aI10
aI10
aI9
aI9
aI9
aI9
aI10
aI10
aI10
aI10
aI12
aI13
aI13
aI15
aI15
aI15
aI14
aI12
aI12
aI12
aI20
aI20
aI20
aI20
aI21
aI21
aI21
aI21
aI21
aI21
aI21
aI21
aI22
aI22
aI23
aI24
aI24
aI24
aI24
aI25
aI25
aI26
aI26
aI26
aI26
aI26
aI27
aI44
aI43
aI43
aI43
aI42
aI42
aI41
aI40
aI40
aI39
aI15
aI15
aI14
aI14
aI14
aI14
aI20
aI20
aI21
aI22
aI22
aI23
aI24
aI24
aI25
aI25
aI26
aI27
aI27
aI28
aI28
aI28
aI29
aI29
aI29
aI29
aI29
aI29
aI29
aI29
aI29
aI30
aI30
aI30
aI30
aI30
aI30
aI30
aI31
aI31
aI31
aI31
aI31
aI31
aI31
aI31
aI31
aI31
aI31
aI30
aI30
aI30
aI29
aI29
aI29
aI29
aI29
aI29
aI29
aI29
aI28
aI28
aI27
aI26
aI26
aI25
aI25
aI25
aI25
aI25
aI25
aI25
aI25
aI25
aI24
aI24
aI24
aI23
aI23
aI22
aI21
aI19
aI18
aI16
aI14
aI13
aI13
aI13
aI13
aI14
aI14
aI31
aI30
aI30
aI29
aI29
aI28
aI28
aI28
aI27
aI27
aI26
aI26
aI26
aI26
aI27
aI27
aI27
aI28
aI28
aI28
aI29
aI30
aI31
aI31
aI32
aI32
aI32
aI33
aI33
aI33
aI34
aI34
aI35
aI34
aI33
aI32
aI29
aI26
aI17
aI14
aI13
aI11
aI7
aI6
aI6
aI6
aI7
aI8
aI8
aI13
aI13
aI28
aI28
aI28
aI29
aI30
aI30
aI30
aI31
aI31
aI8
aI7
aI7
aI7
aI7
aI7
aI7
aI7
aI7
aI7
aI7
aI7
aI7
aI9
aI10
aI10
aI11
aI11
aI11
aI12
aI13
aI13
aI14
aI14
aI15
aI12
aI12
aI8
aI6
aI4
aI4
aI4
aI4
aI4
aI4
aI4
aI4
aI3
aI3
aI3
aI3
aI3
aI3
aI3
aI3
aI3
aI3
aI3
aI3
aI3
aI3
aI3
aI3
aI3
aI3
aI3
aI3
aI4
aI4
aI4
aI4
aI4
aI4
aI4
aI12
aI12
aI12
aI12
aI12
aI13
aI13
aI14
aI13
aI13
aI13
aI13
aI11
aI11
aI11
aI12
aI12
aI12
aI11
aI11
aI10
aI11
aI11
aI11
aI11
aI11
aI11
aI12
aI12
aI17
aI17
aI16
aI15
aI15
aI14
aI14
aI14
aI14
aI15
aI15
aI14
aI14
aI14
aI13
aI13
aI13
aI13
aI13
aI13
aI12
aI12
aI12
aI12
aI12
aI10
aI10
aI11
aI11
aI11
aI11
aI10
aI10
aI10
aI10
aI10
aI10
aI9
aI9
aI9
aI9
aI9
aI9
aI8
aI8
aI8
aI8
aI7
aI7
aI7
aI7
aI7
aI7
aI7
aI7
aI7
aI7
aI7
aI7
aI7
aI7
aI8
aI8
aI8
aI8
aI8
aI9
aI9
aI9
aI10
aI10
aI10
aI10
aI10
aI10
aI10
aI10
aI10
aI10
aI10
aI10
aI10
aI10
aI10
aI11
aI11
aI11
aI11
aI11
aI11
aI12
aI12
aI12
aI12
aI12
aI12
aI12
aI12
aI13
aI12
aI13
aI13
aI14
aI14
aI14
aI14
aI15
aI15
aI15
aI15
aI15
aI15
aI15
aI15
aI15
aI15
aI14
aI14
aI14
aI14
aI13
aI13
aI12
aI12
aI12
aI8
aI7
aI7
aI7
aI7
aI7
aI7
aI7
aI7
aI7
aI7
aI7
aI7
aI7
aI10
aI10
aI11
aI11
aI12
aI12
aI13
aI14
aI14
aI15
aI15
aI16
aI13
aI12
aI12
aI11
aI10
aI9
aI8
aI4
aI4
aI4
aI4
aI4
aI4
aI4
aI4
aI4
aI3
aI3
aI3
aI3
aI3
aI3
aI3
aI3
aI3
aI3
aI3
aI3
aI3
aI3
aI3
aI3
aI3
aI3
aI3
aI3
aI4
aI4
aI4
aI4
aI4
aI4
aI4
aI12
aI12
aI12
aI12
aI13
aI13
aI14
aI14
aI14
aI14
aI14
aI13
aI13
aI11
aI11
aI11
aI11
aI11
aI11
aI11
aI11
aI10
aI11
aI11
aI11
aI11
aI12
aI19
aI17
aI17
aI16
aI15
aI15
aI14
aI14
aI13
aI14
aI16
aI16
aI15
aI15
aI15
aI14
aI14
aI14
aI13
aI13
aI13
aI13
aI12
aI12
aI12
aI12
aI12
aI12
aI11
aI10
aI10
aI11
aI10
aI11
aI10
aI10
aI10
aI10
aI10
aI10
aI10
aI10
aI9
aI9
aI9
aI9
aI9
aI9
aI9
aI8
aI8
aI8
aI7
aI7
aI7
aI7
aI7
aI7
aI7
aI7
aI7
aI7
aI7
aI7
aI7
aI7
aI8
aI8
aI8
aI9
aI9
aI9
aI9
aI10
aI10
aI10
aI10
aI10
aI10
aI10
aI10
aI10
aI10
aI10
aI10
aI10
aI10
aI10
aI10
aI10
aI10
aI10
aI10
aI10
aI11
aI11
aI11
aI11
aI12
aI12
aI12
aI12
aI12
aI12
aI12
aI13
aI13
aI13
aI13
aI13
aI13
aI13
aI16
aI16
aI16
aI16
aI15
aI15
aI15
aI15
aI15
aI15
aI15
aI14
aI14
aI14
aI13
aI13
aI12
aI8
aI8
aI8
aI7
aI7
aI7
aI7
aI7
aI7
aI7
aI7
aI7
aI7
aI7
aI7
aI7
aI7
aI6
aI10
aI11
aI11
aI12
aI12
aI13
aI13
aI13
aI15
aI15
aI16
aI16
aI17
aI13
aI13
aI12
aI12
aI11
aI11
aI10
aI9
aI8
aI5
aI5
aI5
aI4
aI4
aI4
aI4
aI4
aI4
aI4
aI4
aI4
aI4
aI3
aI3
aI3
aI3
aI22
aI38
aI38
aI38
aI40
aI40
aI40
aI40
aI40
aI40
aI41
aI40
aI40
aI19
aI19
aI18
aI17
aI14
aI14
aI14
aI15
aI16
aI16
aI16
aI16
aI13
aI13
aI13
aI14
aI14
aI14
aI15
aI15
aI16
aI16
aI16
aI16
aI17
aI18
aI18
aI19
aI19
aI16
aI11
aI12
aI9
aI8
aI8
aI7
aI7
aI7
aI7
aI7
aI6
aI6
aI6
aI15
aI16
aI17
aI18
aI19
aI20
aI21
aI39
aI38
aI28
aI29
aI30
aI31
aI31
aI32
aI33
aI33
aI34
aI34
aI38
aI39
aI40
aI40
aI41
aI42
aI43
aI44
aI46
aI36
aI34
aI32
aI26
aI25
aI23
aI22
aI22
aI21
aI22
aI22
aI23
aI24
aI25
aI26
aI27
aI28
aI30
aI31
aI33
aI35
aI38
aI40
aI42
aI44
aI47
aI45
aI44
aI36
aI27
aI28
aI28
aI28
aI28
aI29
aI29
aI30
aI30
aI31
aI31
aI32
aI33
aI42
aI42
aI41
aI41
aI41
aI31
aI31
aI31
aI30
aI30
aI30
aI29
aI28
aI28
aI28
aI25
aI24
aI23
aI23
aI22
aI22
aI22
aI21
aI21
aI21
aI20
aI20
aI20
aI5
aI5
aI4
aI4
aI15
aI16
aI16
aI16
aI17
aI17
aI18
aI18
aI19
aI19
aI19
aI19
aI19
aI19
aI19
aI19
aI19
aI19
aI19
aI10
aI10
aI9
aI7
aI10
aI10
aI10
aI10
aI11
aI12
aI12
aI22
aI38
aI38
aI38
aI40
aI40
aI40
aI41
aI41
aI41
aI41
aI41
aI40
aI40
aI38
aI39
aI39
aI19
aI18
aI14
aI14
aI14
aI15
aI16
aI16
aI13
aI13
aI14
aI14
aI14
aI15
aI15
aI16
aI16
aI16
aI17
aI17
aI17
aI18
aI18
aI19
aI19
aI17
aI11
aI12
aI12
aI10
aI9
aI8
aI8
aI6
aI6
aI6
aI6
aI17
aI18
aI19
aI20
aI21
aI33
aI33
aI32
aI31
aI28
aI29
aI30
aI31
aI31
aI32
aI32
aI33
aI33
aI34
aI35
aI35
aI36
aI37
aI38
aI38
aI39
aI40
aI41
aI41
aI42
aI43
aI44
aI45
aI31
aI29
aI27
aI26
aI25
aI24
aI23
aI23
aI22
aI22
aI22
aI22
aI22
aI23
aI24
aI25
aI26
aI28
aI29
aI30
aI32
aI34
aI36
aI38
aI41
aI43
aI47
aI37
aI36
aI27
aI27
aI27
aI28
aI28
aI28
aI29
aI29
aI29
aI30
aI30
aI31
aI32
aI32
aI40
aI40
aI32
aI32
aI31
aI31
aI31
aI31
aI30
aI29
aI30
aI30
aI26
aI24
aI24
aI23
aI23
aI22
aI22
aI22
aI21
aI21
aI21
aI20
aI5
aI5
aI5
aI4
aI15
aI15
aI16
aI16
aI16
aI16
aI17
aI17
aI18
aI19
aI19
aI19
aI19
aI19
aI19
aI19
aI19
aI19
aI7
aI9
aI9
aI9
aI11
aI11
aI14
aI14
aI15
aI15
aI12
aI12
aI12
aI22
aI22
aI38
aI38
aI38
aI38
aI38
aI38
aI38
aI39
aI39
aI39
aI40
aI40
aI40
aI41
aI18
aI14
aI15
aI15
aI15
aI13
aI13
aI13
aI13
aI14
aI14
aI14
aI15
aI15
aI16
aI16
aI17
aI17
aI17
aI18
aI18
aI18
aI19
aI11
aI12
aI10
aI9
aI6
aI6
aI6
aI6
aI19
aI20
aI20
aI33
aI32
aI31
aI31
aI28
aI29
aI30
aI30
aI31
aI31
aI32
aI32
aI33
aI34
aI34
aI35
aI35
aI36
aI37
aI38
aI38
aI39
aI40
aI43
aI44
aI45
aI47
aI48
aI31
aI29
aI27
aI26
aI25
aI24
aI24
aI23
aI22
aI22
aI22
aI21
aI22
aI23
aI24
aI26
aI27
aI28
aI29
aI30
aI32
aI34
aI36
aI39
aI41
aI39
aI37
aI34
aI32
aI31
aI27
aI27
aI27
aI27
aI28
aI28
aI28
aI29
aI29
aI29
aI30
aI31
aI31
aI32
aI36
aI21
aI21
aI22
aI22
aI22
aI27
aI38
aI39
aI39
aI39
aI39
aI39
aI40
aI40
aI40
aI40
aI40
aI40
aI40
aI40
aI40
aI40
aI40
aI40
aI40
aI40
aI40
aI40
aI40
aI40
aI43
aI44
aI44
aI43
aI43
aI43
aI43
aI37
aI37
aI37
aI38
aI38
aI38
aI38
aI38
aI38
aI39
aI39
aI39
aI40
aI40
aI40
aI40
aI40
aI40
aI40
aI40
aI40
aI40
aI41
aI41
aI41
aI48
aI48
aI47
aI47
aI46
aI46
aI46
aI46
aI46
aI46
aI46
aI45
aI45
aI45
aI45
aI45
aI42
aI41
aI41
aI41
aI40
aI40
aI39
aI39
aI39
aI38
aI38
aI38
aI37
aI37
aI37
aI36
aI36
aI36
aI35
aI36
aI36
aI36
aI36
aI37
aI37
aI37
aI37
aI37
aI37
aI37
aI36
aI36
aI36
aI36
aI36
aI36
aI36
aI36
aI36
aI36
aI36
aI36
aI36
aI36
aI36
aI35
aI35
aI35
aI35
aI35
aI35
aI35
aI35
aI35
aI35
aI35
aI35
aI35
aI35
aI35
aI35
aI35
aI35
aI35
aI35
aI35
aI34
aI34
aI34
aI34
aI34
aI34
aI34
aI34
aI34
aI34
aI34
aI34
aI34
aI34
aI34
aI34
aI33
aI33
aI33
aI33
aI32
aI32
aI32
aI31
aI31
aI31
aI31
aI31
aI31
aI30
aI31
aI31
aI31
aI31
aI31
aI31
aI31
aI30
aI30
aI30
aI30
aI30
aI30
aI30
aI30
aI30
aI29
aI29
aI29
aI30
aI29
aI29
aI29
aI29
aI29
aI29
aI29
aI29
aI29
aI29
aI30
aI43
aI19
aI19
aI19
aI19
aI19
aI19
aI19
aI19
aI21
aI22
aI44
aI44
aI44
aI44
aI38
aI39
aI39
aI39
aI39
aI39
aI39
aI39
aI40
aI40
aI40
aI40
aI40
aI40
aI40
aI40
aI40
aI40
aI40
aI40
aI40
aI40
aI40
aI40
aI44
aI37
aI37
aI37
aI37
aI38
aI38
aI38
aI38
aI40
aI40
aI40
aI40
aI40
aI40
aI40
aI40
aI40
aI40
aI40
aI40
aI40
aI47
aI47
aI46
aI46
aI46
aI46
aI46
aI45
aI45
aI45
aI45
aI45
aI45
aI45
aI45
aI44
aI44
aI44
aI43
aI42
aI42
aI41
aI41
aI41
aI40
aI40
aI39
aI39
aI38
aI38
aI38
aI38
aI37
aI37
aI36
aI36
aI36
aI35
aI35
aI35
aI36
aI36
aI36
aI37
aI37
aI37
aI37
aI37
aI37
aI37
aI37
aI37
aI37
aI37
aI37
aI37
aI37
aI37
aI37
aI37
aI36
aI36
aI36
aI36
aI36
aI36
aI36
aI36
aI36
aI36
aI36
aI36
aI36
aI36
aI36
aI36
aI35
aI35
aI35
aI35
aI35
aI35
aI35
aI35
aI35
aI35
aI35
aI35
aI35
aI35
aI35
aI34
aI34
aI34
aI34
aI34
aI34
aI34
aI34
aI34
aI34
aI34
aI34
aI34
aI34
aI34
aI33
aI33
aI33
aI32
aI32
aI32
aI31
aI31
aI31
aI31
aI31
aI31
aI31
aI31
aI31
aI31
aI31
aI31
aI31
aI31
aI31
aI31
aI30
aI30
aI30
aI30
aI30
aI30
aI30
aI30
aI30
aI30
aI30
aI30
aI30
aI30
aI30
aI30
aI30
aI30
aI30
aI30
aI30
aI19
aI19
aI19
aI19
aI19
aI19
aI19
aI19
aI19
aI44
aI44
aI44
aI45
aI39
aI39
aI39
aI39
aI39
aI39
aI39
aI39
aI39
aI40
aI40
aI40
aI39
aI39
aI40
aI40
aI40
aI40
aI40
aI40
aI40
aI40
aI40
aI37
aI37
aI37
aI37
aI37
aI38
aI38
aI38
aI38
aI40
aI40
aI39
aI39
aI39
aI40
aI40
aI40
aI47
aI46
aI46
aI46
aI46
aI45
aI45
aI45
aI45
aI45
aI45
aI45
aI45
aI45
aI45
aI45
aI44
aI44
aI43
aI43
aI42
aI42
aI42
aI41
aI41
aI40
aI40
aI39
aI39
aI38
aI38
aI38
aI22
aI22
aI22
aI22
aI22
aI23
aI23
aI23
aI27
aI27
aI28
aI28
aI28
aI28
aI28
aI28
aI28
aI28
aI28
aI28
aI28
aI28
aI27
aI27
aI27
aI28
aI28
aI29
aI29
aI29
aI29
aI29
aI30
aI30
aI31
aI32
aI32
aI33
aI33
aI33
aI34
aI35
aI36
aI36
aI37
aI38
aI39
aI40
aI41
aI42
aI44
aI44
aI45
aI46
aI46
aI47
aI47
aI46
aI46
aI45
aI45
aI44
aI44
aI44
aI44
aI43
aI43
aI44
aI44
aI44
aI44
aI45
aI45
aI46
aI46
aI45
aI45
aI44
aI44
aI44
aI43
aI42
aI42
aI41
aI41
aI41
aI40
aI40
aI39
aI39
aI40
aI41
aI40
aI40
aI40
aI41
aI41
aI41
aI42
aI42
aI42
aI41
aI41
aI41
aI41
aI41
aI41
aI41
aI41
aI41
aI41
aI41
aI41
aI41
aI42
aI42
aI43
aI43
aI43
aI44
aI44
aI43
aI43
aI39
aI38
aI37
aI37
aI37
aI37
aI37
aI37
aI45
aI45
aI45
aI44
aI44
aI44
aI43
aI43
aI43
aI42
aI36
aI35
aI34
aI35
aI30
aI30
aI30
aI30
aI30
aI30
aI29
aI29
aI29
aI29
aI28
aI28
aI28
aI28
aI28
aI28
aI28
aI27
aI27
aI27
aI27
aI26
aI26
aI26
aI26
aI26
aI26
aI26
aI26
aI26
aI25
aI25
aI25
aI25
aI25
aI24
aI24
aI24
aI23
aI23
aI23
aI22
aI22
aI21
aI21
aI20
aI20
aI17
aI16
aI16
aI16
aI15
aI14
aI13
aI30
aI30
aI16
aI17
aI17
aI18
aI18
aI19
aI20
aI20
aI21
aI23
aI23
aI24
aI24
aI24
aI26
aI27
aI28
aI29
aI30
aI31
aI32
aI33
aI33
aI34
aI34
aI34
aI35
aI34
aI34
aI34
aI33
aI33
aI32
aI32
aI33
aI33
aI33
aI34
aI35
aI36
aI37
aI37
aI38
aI38
aI39
aI39
aI40
aI40
aI40
aI40
aI40
aI40
aI40
aI40
aI41
aI42
aI43
aI44
aI45
aI45
aI40
aI39
aI38
aI37
aI36
aI36
aI38
aI38
aI38
aI37
aI37
aI37
aI36
aI35
aI33
aI32
aI31
aI26
aI26
aI35
aI35
aI35
aI34
aI34
aI34
aI33
aI22
aI37
aI37
aI36
aI36
aI36
aI36
aI36
aI36
aI36
aI36
aI36
aI36
aI36
aI36
aI36
aI37
aI37
aI38
aI38
aI38
aI38
aI38
aI38
aI38
aI38
aI39
aI39
aI39
aI39
aI40
aI40
aI40
aI40
aI40
aI40
aI41
aI41
aI41
aI41
aI41
aI42
aI42
aI42
aI43
aI44
aI44
aI44
aI44
aI44
aI44
aI44
aI44
aI44
aI44
aI43
aI43
aI42
aI42
aI42
aI41
aI41
aI40
aI39
aI38
aI38
aI38
aI38
aI37
aI36
aI35
aI34
aI33
aI33
aI32
aI32
aI31
aI31
aI30
aI29
aI28
aI35
aI36
aI36
aI37
aI38
aI44
aI31
aI29
aI27
aI24
aI23
aI42
aI41
aI39
aI37
aI34
aI33
aI32
aI31
aI30
aI29
aI29
aI28
aI27
aI32
aI34
aI35
aI36
aI38
aI39
aI41
aI43
aI42
aI42
aI41
aI41
aI42
aI44
aI46
aI45
aI43
aI42
aI41
aI40
aI39
aI37
aI36
aI35
aI34
aI34
aI32
aI32
aI28
aI28
aI27
aI26
aI20
aI20
aI20
aI20
aI19
aI19
aI19
aI19
aI18
aI18
aI18
aI18
aI17
aI16
aI15
aI14
aI13
aI13
aI12
aI12
aI14
aI14
aI13
aI14
aI14
aI11
aI11
aI13
aI14
aI14
aI14
aI14
aI15
aI16
aI16
aI17
aI18
aI18
aI18
aI18
aI19
aI19
aI19
aI19
aI19
aI19
aI19
aI19
aI18
aI19
aI19
aI19
aI19
aI19
aI19
aI19
aI19
aI19
aI19
aI19
aI19
aI19
aI19
aI19
aI19
aI19
aI19
aI19
aI19
aI19
aI19
aI19
aI19
aI19
aI19
aI19
aI47
aI47
aI47
aI47
aI41
aI41
aI41
aI42
aI42
aI42
aI42
aI43
aI43
aI43
aI42
aI42
aI42
aI41
aI41
aI41
aI41
aI42
aI42
aI43
aI43
aI44
aI44
aI45
aI45
aI45
aI45
aI46
aI46
aI47
aI47
aI47
aI48
aI48
aI48
aI49
aI49
aI49
aI50
aI50
aI50
aI50
aI50
aI50
aI50
aI50
aI51
aI52
aI52
aI52
aI53
aI53
aI53
aI53
aI52
aI52
aI52
aI52
aI52
aI54
aI56
aI58
aI59
aI60
aI60
aI60
aI61
aI61
aI61
aI61
aI61
aI62
aI62
aI62
aI62
aI62
aI62
aI63
aI63
aI63
aI63
aI63
aI63
aI62
aI62
aI62
aI62
aI62
aI61
aI61
aI61
aI60
aI60
aI60
aI60
aI60
aI60
aI60
aI60
aI60
aI60
aI60
aI61
aI61
aI61
aI61
aI61
aI61
aI61
aI61
aI60
aI60
aI59
aI58
aI58
aI58
aI57
aI57
aI56
aI56
aI55
aI54
aI53
aI53
aI52
aI52
aI52
aI52
aI52
aI52
aI52
aI52
aI52
aI53
aI53
aI53
aI53
aI53
aI53
aI53
aI54
aI54
aI54
aI54
aI54
aI54
aI55
aI55
aI55
aI55
aI55
aI55
aI55
aI55
aI55
aI55
aI54
aI55
aI54
aI54
aI54
aI54
aI54
aI54
aI54
aI54
aI54
aI55
aI55
aI55
aI56
aI56
aI56
aI57
aI58
aI58
aI58
aI59
aI59
aI59
aI60
aI60
aI60
aI60
aI60
aI60
aI60
aI61
aI61
aI61
aI61
aI62
aI62
aI61
aI61
aI61
aI61
aI61
aI61
aI60
aI60
aI60
aI59
aI59
aI58
aI58
aI58
aI58
aI57
aI57
aI56
aI56
aI55
aI55
aI54
aI53
aI53
aI52
aI52
aI52
aI51
aI51
aI50
aI50
aI49
aI49
aI49
aI48
aI45
aI45
aI46
aI46
aI47
aI48
aI49
aI50
aI50
aI51
aI51
aI51
aI51
aI50
aI50
aI50
aI51
aI51
aI52
aI53
aI53
aI52
aI51
aI49
aI48
aI48
aI48
aI48
aI48
aI47
aI45
aI44
aI43
aI42
aI41
aI41
aI41
aI47
aI47
aI48
aI48
aI49
aI49
aI50
aI51
aI52
aI52
aI52
aI53
aI53
aI54
aI55
aI56
aI57
aI58
aI59
aI60
aI61
aI61
aI61
aI61
aI61
aI61
aI61
aI61
aI60
aI60
aI60
aI59
aI58
aI57
aI56
aI54
aI53
aI52
aI51
aI49
aI49
aI48
aI47
aI46
aI46
aI45
aI45
aI45
aI45
aI46
aI46
aI46
aI47
aI47
aI47
aI47
aI47
aI48
aI48
aI48
aI49
aI49
aI51
aI52
aI54
aI54
aI55
aI55
aI55
aI54
aI53
aI53
aI52
aI51
aI50
aI50
aI49
aI48
aI47
aI46
aI45
aI44
aI42
aI40
aI39
aI37
aI45
aI47
aI48
aI49
aI50
aI51
aI52
aI52
aI53
aI53
aI53
aI52
aI51
aI50
aI50
aI49
aI49
aI49
aI49
aI50
aI50
aI50
aI50
aI50
aI50
aI50
aI50
aI50
aI50
aI50
aI50
aI50
aI50
aI50
aI50
aI50
aI50
aI50
aI50
aI50
aI50
aI50
aI50
aI49
aI49
aI48
aI47
aI48
aI48
aI48
aI47
aI46
aI41
aI41
aI41
aI41
aI42
aI42
aI42
aI43
aI43
aI43
aI44
aI44
aI44
aI44
aI43
aI43
aI43
aI42
aI41
aI41
aI41
aI41
aI42
aI42
aI43
aI43
aI44
aI44
aI44
aI45
aI45
aI45
aI46
aI46
aI46
aI46
aI47
aI47
aI48
aI48
aI48
aI48
aI49
aI49
aI49
aI49
aI49
aI49
aI49
aI49
aI50
aI50
aI50
aI51
aI51
aI51
aI51
aI51
aI50
aI50
aI51
aI50
aI52
aI52
aI54
aI57
aI58
aI59
aI61
aI61
aI61
aI61
aI61
aI61
aI61
aI61
aI62
aI62
aI62
aI62
aI62
aI62
aI63
aI63
aI63
aI63
aI63
aI63
aI63
aI63
aI62
aI62
aI62
aI15
aI15
aI19
aI19
aI19
aI19
aI19
aI19
aI19
aI25
aI26
aI19
aI19
aI18
aI19
aI57
aI17
aI58
aI58
aI59
aI59
aI59
aI59
aI25
aI25
aI26
aI25
aI30
aI30
aI23
aI23
aI36
aI36
aI36
aI35
aI54
aI54
aI54
aI53
aI55
aI55
aI55
aI54
aI54
aI56
aI31
aI55
aI54
aI55
aI54
aI25
aI25
aI24
aI24
aI10
aI10
aI10
aI10
aI10
aI10
aI10
aI62
aI62
aI62
aI62
aI60
aI60
aI61
aI61
aI61
aI10
aI62
aI62
aI62
aI62
aI62
aI62
aI62
aI63
aI63
aI63
aI10
aI10
aI62
aI62
aI62
aI62
aI64
aI64
aI64
aI64
aI64
aI64
aI10
aI10
aI62
aI64
aI65
aI65
aI66
aI65
aI65
aI10
aI66
aI66
aI66
aI67
aI67
aI10
aI66
aI67
aI67
aI68
aI68
aI68
aI10
aI65
aI66
aI67
aI68
aI68
aI68
aI69
aI68
aI10
aI65
aI66
aI67
aI68
aI69
aI69
aI70
aI70
aI10
aI10
aI65
aI66
aI67
aI68
aI69
aI69
aI70
aI70
aI70
aI10
aI10
aI28
aI69
aI69
aI71
aI70
aI10
aI29
aI29
aI29
aI70
aI10
aI29
aI29
aI29
aI70
aI70
aI10
aI29
aI29
aI70
aI70
aI70
aI29
aI70
aI69
aI69
aI70
aI69
aI69
aI69
aI69
aI69
aI69
aI69
aI69
aI9
aI45
aI45
aI44
aI44
aI69
aI68
aI68
aI69
aI46
aI45
aI68
aI68
aI68
aI67
aI68
aI70
aI71
aI72
aI46
aI45
aI45
aI67
aI67
aI66
aI67
aI67
aI68
aI70
aI71
aI72
aI9
aI47
aI46
aI45
aI45
aI44
aI71
aI72
aI72
aI9
aI46
aI46
aI46
aI46
aI45
aI44
aI44
aI70
aI71
aI72
aI72
aI9
aI44
aI71
aI72
aI72
aI72
aI73
aI70
aI71
aI71
aI72
aI72
aI71
aI70
aI70
aI70
aI70
aI70
aI61
aI60
aI61
aI60
aI61
aI61
aI60
aI61
aI61
aI60
aI63
aI63
aI62
aI62
aI59
aI60
aI61
aI61
aI60
aI61
aI62
aI62
aI62
aI62
aI63
aI20
aI18
aI20
aI16
aI17
aI19
aI15
aI17
aI18
aI16
aI18
aI44
aI44
aI44
aI44
aI44
aI44
aI44
aI19
aI19
aI19
aI19
aI19
aI19
aI20
aI19
aI19
aI20
aI19
aI19
aI20
aI19
aI19
aI19
aI19
aI19
aI19
aI19
aI19
aI19
aI19
aI19
aI19
aI19
aI22
aI22
aI61
aI63
aI23
aI62
aI64
aI61
aI65
aI63
aI43
aI63
aI42
aI43
aI45
aI40
aI41
aI55
aI40
aI40
aI42
aI53
aI56
aI40
aI41
aI43
aI45
aI47
aI51
aI53
aI57
aI40
aI40
aI42
aI44
aI46
aI48
aI52
aI57
aI59
aI40
aI40
aI40
aI41
aI43
aI45
aI47
aI49
aI41
aI42
aI44
aI46
aI48
aI51
aI53
aI43
aI45
aI47
aI50
aI51
aI53
aI40
aI44
aI46
aI48
aI51
aI52
aI54
aI48
aI50
aI52
aI53
aI52
aI53
aI55
aI54
aI65
aI65
aI65
aI65
aI65
aI65
aI66
aI66
aI66
aI66
aI66
aI66
aI66
aI66
aI66
aI66
aI66
aI67
aI67
aI67
aI66
aI66
aI66
aI66
aI69
aI69
aI69
aI26
aI73
aI72
aI72
aI69
aI66
aI66
aI66
aI67
aI67
aI67
aI67
aI67
aI66
aI66
aI66
aI67
aI67
aI67
aI68
aI68
aI68
aI69
aI69
aI69
aI69
aI28
aI75
aI74
aI73
aI73
aI72
aI72
aI71
aI71
aI71
aI69
aI68
aI68
aI68
aI68
aI68
aI68
aI68
aI68
aI67
aI66
aI67
aI67
aI67
aI67
aI68
aI68
aI68
aI69
aI69
aI69
aI69
aI28
aI75
aI75
aI74
aI73
aI73
aI72
aI72
aI72
aI72
aI71
aI67
aI68
aI68
aI67
aI67
aI67
aI67
aI68
aI21
aI21
aI23
aI23
aI23
aI15
aI19
aI19
aI8
aI8
aI9
aI9
aI23
aI16
aI13
aI19
aI19
aI7
aI15
aI13
aI13
aI19
aI19
aI19
aI19
aI7
aI19
aI19
aI19
aI19
aI7
aI7
aI19
aI19
aI19
aI19
aI19
aI7
aI19
aI19
aI19
aI19
aI19
aI22
aI19
aI19
aI19
aI19
aI19
aI7
aI8
aI7
aI14
aI13
aI14
aI15
aI12
aI13
aI15
aI15
aI12
aI12
aI15
aI15
aI12
aI12
aI15
aI15
aI15
aI13
aI13
aI14
aI15
aI13
aI14
aI15
aI13
aI14
aI14
aI23
aI13
aI10
aI10
aI13
aI12
aI20
aI20
aI12
aI19
aI19
aI19
aI20
aI20
aI21
aI12
aI20
aI21
aI21
aI10
aI37
aI8
aI10
aI10
aI37
aI37
aI8
aI37
aI37
aI37
aI37
aI12
aI12
aI12
aI12
aI12
aI12
aI27
aI12
aI12
aI12
aI12
aI11
aI12
aI12
aI12
aI29
aI29
aI29
aI29
aI30
aI14
aI14
aI13
aI30
aI35
aI35
aI35
aI35
aI6
aI6
aI10
aI10
aI6
aI6
aI11
aI10
aI10
aI6
aI6
aI32
aI10
aI6
aI6
aI33
aI33
aI33
aI33
aI33
aI32
aI32
aI6
aI33
aI33
aI33
aI33
aI9
aI11
aI9
aI9
aI11
aI9
aI9
aI9
aI9
aI9
aI8
aI8
aI9
aI9
aI9
aI9
aI9
aI9
aI9
aI9
aI8
aI8
aI8
aI8
aI8
aI9
aI9
aI9
aI9
aI9
aI9
aI8
aI8
aI8
aI8
aI8
aI8
aI7
aI8
aI9
aI8
aI8
aI8
aI8
aI8
aI8
aI8
aI8
aI8
aI8
aI8
aI8
aI8
aI8
aI8
aI8
aI8
aI8
aI8
aI8
aI8
aI8
aI8
aI8
aI8
aI8
aI8
aI8
aI8
aI8
aI8
aI8
aI9
aI8
aI8
aI8
aI8
aI8
aI8
aI8
aI10
aI10
aI28
aI28
aI28
aI27
aI27
aI27
aI27
aI11
aI10
aI27
aI27
aI10
aI22
aI27
aI27
aI26
aI10
aI17
aI17
aI22
aI27
aI26
aI17
aI27
aI17
aI27
aI26
aI6
aI27
aI27
aI27
aI27
aI26
aI6
aI26
aI25
aI26
aI26
aI26
aI26
aI26
aI26
aI26
aI26
aI26
aI26
aI6
aI6
aI7
aI8
aI25
aI25
aI25
aI26
aI26
aI26
aI26
aI26
aI6
aI6
aI6
aI7
aI7
aI25
aI26
aI26
aI26
aI6
aI6
aI23
aI23
aI24
aI24
aI25
aI25
aI25
aI25
aI26
aI26
aI26
aI6
aI6
aI23
aI23
aI23
aI24
aI26
aI6
aI7
aI7
aI7
aI8
aI8
aI8
aI23
aI23
aI23
aI23
aI24
aI24
aI24
aI24
aI6
aI7
aI7
aI7
aI8
aI8
aI9
aI23
aI23
aI23
aI24
aI24
aI24
aI24
aI6
aI7
aI7
aI7
aI8
aI9
aI9
aI24
aI25
aI25
aI6
aI6
aI7
aI7
aI8
aI8
aI8
aI8
aI24
aI24
aI25
aI25
aI6
aI6
aI7
aI7
aI7
aI7
aI6
aI6
aI6
aI7
aI7
aI7
aI7
aI7
aI6
aI6
aI6
aI7
aI7
aI7
aI7
aI7
aI7
aI7
aI7
aI7
aI7
aI7
aI7
aI7
aI7
aI7
aI25
aI25
aI25
aI20
aI19
aI7
aI7
aI7
aI7
aI7
aI7
aI7
aI8
aI8
aI8
aI19
aI6
aI7
aI7
aI7
aI7
aI7
aI7
aI7
aI8
aI8
aI8
aI9
aI9
aI10
aI6
aI6
aI7
aI7
aI7
aI7
aI7
aI7
aI7
aI8
aI8
aI9
aI9
aI9
aI10
aI5
aI4
aI4
aI3
aI3
aI9
aI6
aI6
aI6
aI6
aI7
aI7
aI7
aI7
aI7
aI7
aI8
aI8
aI9
aI10
aI10
aI10
aI11
aI5
aI5
aI4
aI4
aI3
aI3
aI6
aI6
aI6
aI6
aI6
aI6
aI7
aI7
aI7
asS'RiverDistance'
p5
(lp6
I10
aI9
aI0
aI0
aI0
aI0
aI6
aI7
aI29
aI30
aI29
aI28
aI16
aI3
aI4
aI3
aI2
aI10
aI10
aI9
aI7
aI7
aI7
aI7
aI9
aI10
aI11
aI0
aI2
aI20
aI21
aI2
aI3
aI31
aI30
aI10
aI9
aI0
aI1
aI1
aI6
aI28
aI29
aI29
aI28
aI16
aI15
aI5
aI4
aI3
aI2
aI14
aI13
aI9
aI9
aI7
aI7
aI8
aI9
aI18
aI19
aI20
aI21
aI22
aI10
aI9
aI2
aI3
aI21
aI22
aI21
aI31
aI30
aI11
aI10
aI9
aI2
aI2
aI5
aI5
aI5
aI6
aI5
aI4
aI3
aI13
aI14
aI14
aI13
aI12
aI6
aI6
aI7
aI8
aI18
aI19
aI20
aI20
aI10
aI9
aI8
aI7
aI6
aI3
aI20
aI21
aI19
aI11
aI10
aI9
aI2
aI3
aI1
aI2
aI3
aI4
aI4
aI4
aI6
aI7
aI6
aI5
aI4
aI11
aI12
aI13
aI14
aI14
aI5
aI5
aI6
aI7
aI16
aI16
aI17
aI17
aI18
aI19
aI19
aI10
aI9
aI8
aI7
aI6
aI5
aI4
aI18
aI19
aI17
aI16
aI7
aI6
aI3
aI2
aI0
aI0
aI1
aI11
aI10
aI9
aI1
aI2
aI3
aI3
aI3
aI8
aI7
aI6
aI5
aI11
aI12
aI13
aI14
aI4
aI4
aI5
aI6
aI0
aI16
aI15
aI15
aI15
aI16
aI16
aI17
aI18
aI6
aI10
aI9
aI8
aI7
aI6
aI4
aI17
aI18
aI19
aI16
aI15
aI14
aI7
aI6
aI4
aI3
aI2
aI1
aI2
aI11
aI10
aI9
aI1
aI2
aI2
aI2
aI3
aI3
aI3
aI3
aI8
aI7
aI6
aI9
aI10
aI11
aI4
aI5
aI1
aI15
aI14
aI14
aI14
aI15
aI15
aI16
aI17
aI7
aI6
aI5
aI10
aI9
aI8
aI7
aI6
aI18
aI17
aI15
aI14
aI13
aI2
aI1
aI3
aI2
aI3
aI3
aI3
aI9
aI8
aI7
aI8
aI9
aI1
aI2
aI1
aI14
aI14
aI13
aI13
aI13
aI14
aI14
aI15
aI8
aI7
aI6
aI5
aI4
aI9
aI8
aI7
aI6
aI5
aI16
aI15
aI14
aI13
aI12
aI1
aI0
aI0
aI1
aI3
aI0
aI1
aI4
aI2
aI10
aI11
aI10
aI9
aI8
aI6
aI7
aI3
aI3
aI4
aI0
aI0
aI2
aI1
aI0
aI0
aI1
aI14
aI13
aI13
aI13
aI13
aI12
aI13
aI13
aI8
aI7
aI5
aI4
aI3
aI9
aI8
aI7
aI6
aI13
aI12
aI1
aI1
aI2
aI3
aI1
aI0
aI1
aI2
aI3
aI11
aI10
aI9
aI9
aI8
aI8
aI7
aI2
aI3
aI4
aI5
aI1
aI0
aI2
aI1
aI0
aI1
aI0
aI1
aI6
aI7
aI14
aI13
aI12
aI12
aI12
aI12
aI12
aI12
aI12
aI4
aI3
aI2
aI6
aI1
aI2
aI3
aI0
aI1
aI2
aI3
aI4
aI8
aI11
aI12
aI11
aI10
aI10
aI9
aI9
aI8
aI3
aI4
aI5
aI6
aI2
aI1
aI1
aI2
aI1
aI0
aI0
aI0
aI1
aI2
aI5
aI6
aI7
aI13
aI12
aI11
aI11
aI11
aI11
aI11
aI11
aI8
aI7
aI4
aI3
aI2
aI1
aI2
aI3
aI4
aI3
aI2
aI3
aI9
aI11
aI12
aI12
aI11
aI11
aI10
aI4
aI5
aI3
aI2
aI2
aI1
aI3
aI2
aI1
aI0
aI0
aI1
aI2
aI5
aI6
aI7
aI8
aI13
aI12
aI11
aI10
aI10
aI10
aI10
aI10
aI8
aI7
aI5
aI4
aI3
aI2
aI1
aI6
aI5
aI1
aI2
aI3
aI4
aI4
aI3
aI0
aI2
aI3
aI3
aI4
aI5
aI6
aI10
aI11
aI12
aI13
aI12
aI12
aI4
aI5
aI4
aI3
aI2
aI1
aI0
aI2
aI1
aI0
aI0
aI1
aI2
aI1
aI2
aI3
aI3
aI3
aI3
aI3
aI3
aI2
aI1
aI1
aI0
aI0
aI1
aI2
aI3
aI4
aI5
aI6
aI7
aI8
aI8
aI7
aI6
aI5
aI4
aI2
aI1
aI0
aI0
aI1
aI2
aI3
aI4
aI5
aI15
aI16
aI17
aI18
aI19
aI20
aI21
aI22
aI23
aI24
aI25
aI26
aI27
aI26
aI25
aI24
aI23
aI22
aI21
aI20
aI19
aI18
aI17
aI16
aI15
aI14
aI13
aI12
aI11
aI10
aI8
aI6
aI5
aI4
aI3
aI2
aI1
aI0
aI1
aI2
aI3
aI4
aI5
aI5
aI4
aI3
aI2
aI1
aI0
aI0
aI1
aI2
aI3
aI4
aI5
aI6
aI7
aI8
aI9
aI10
aI11
aI12
aI13
aI14
aI15
aI16
aI17
aI18
aI19
aI20
aI21
aI22
aI21
aI20
aI19
aI18
aI17
aI16
aI15
aI13
aI12
aI11
aI1
aI2
aI3
aI4
aI5
aI7
aI9
aI8
aI7
aI6
aI5
aI4
aI3
aI2
aI1
aI0
aI1
aI4
aI5
aI6
aI7
aI8
aI9
aI10
aI11
aI12
aI13
aI14
aI15
aI16
aI17
aI18
aI19
aI20
aI21
aI22
aI23
aI24
aI25
aI28
aI28
aI28
aI27
aI26
aI25
aI24
aI23
aI2
aI5
aI5
aI4
aI2
aI3
aI14
aI14
aI15
aI15
aI15
aI16
aI16
aI16
aI16
aI16
aI16
aI16
aI17
aI17
aI16
aI15
aI14
aI13
aI12
aI11
aI10
aI9
aI8
aI7
aI6
aI5
aI4
aI3
aI2
aI1
aI0
aI1
aI2
aI3
aI4
aI5
aI6
aI7
aI8
aI9
aI10
aI11
aI12
aI13
aI14
aI13
aI12
aI11
aI10
aI9
aI3
aI4
aI5
aI6
aI7
aI8
aI9
aI10
aI11
aI12
aI13
aI18
aI19
aI23
aI22
aI21
aI20
aI19
aI18
aI17
aI16
aI15
aI14
aI13
aI12
aI11
aI10
aI9
aI8
aI7
aI6
aI5
aI4
aI6
aI7
aI8
aI3
aI2
aI1
aI0
aI0
aI0
aI1
aI0
aI1
aI4
aI5
aI6
aI7
aI8
aI9
aI10
aI11
aI12
aI13
aI14
aI15
aI16
aI17
aI18
aI19
aI18
aI17
aI2
aI1
aI0
aI0
aI13
aI14
aI15
aI16
aI17
aI18
aI19
aI20
aI21
aI22
aI23
aI31
aI32
aI33
aI33
aI46
aI38
aI37
aI29
aI28
aI27
aI13
aI7
aI4
aI3
aI0
aI1
aI2
aI2
aI2
aI2
aI2
aI2
aI2
aI2
aI2
aI2
aI1
aI1
aI1
aI2
aI2
aI1
aI1
aI2
aI3
aI4
aI5
aI6
aI7
aI8
aI9
aI11
aI10
aI9
aI8
aI7
aI6
aI5
aI4
aI3
aI2
aI3
aI2
aI3
aI4
aI5
aI6
aI15
aI16
aI17
aI18
aI19
aI20
aI21
aI22
aI23
aI24
aI25
aI26
aI26
aI25
aI24
aI23
aI22
aI21
aI20
aI19
aI18
aI17
aI16
aI15
aI14
aI13
aI12
aI11
aI10
aI9
aI4
aI3
aI2
aI1
aI0
aI0
aI1
aI2
aI3
aI4
aI5
aI6
aI5
aI4
aI3
aI2
aI1
aI0
aI1
aI2
aI3
aI4
aI5
aI6
aI7
aI8
aI9
aI10
aI11
aI12
aI13
aI14
aI15
aI16
aI17
aI18
aI19
aI20
aI21
aI22
aI21
aI20
aI19
aI18
aI17
aI16
aI15
aI13
aI12
aI11
aI1
aI2
aI3
aI4
aI5
aI8
aI7
aI6
aI5
aI4
aI3
aI2
aI1
aI0
aI0
aI1
aI3
aI4
aI5
aI6
aI7
aI8
aI9
aI10
aI11
aI12
aI13
aI14
aI15
aI16
aI17
aI18
aI19
aI20
aI21
aI22
aI23
aI27
aI27
aI27
aI27
aI27
aI27
aI27
aI26
aI25
aI24
aI10
aI2
aI3
aI4
aI6
aI6
aI5
aI2
aI3
aI15
aI15
aI15
aI15
aI15
aI15
aI15
aI16
aI17
aI19
aI18
aI15
aI14
aI13
aI12
aI11
aI10
aI9
aI8
aI7
aI6
aI3
aI1
aI1
aI0
aI0
aI0
aI1
aI1
aI4
aI5
aI6
aI7
aI8
aI8
aI7
aI8
aI8
aI14
aI14
aI14
aI15
aI15
aI15
aI15
aI15
aI15
aI14
aI13
aI12
aI11
aI10
aI9
aI8
aI7
aI6
aI5
aI4
aI3
aI2
aI1
aI0
aI1
aI2
aI3
aI2
aI2
aI2
aI1
aI1
aI0
aI0
aI1
aI22
aI23
aI23
aI23
aI23
aI22
aI22
aI1
aI2
aI3
aI4
aI5
aI9
aI10
aI9
aI8
aI7
aI6
aI5
aI4
aI1
aI2
aI3
aI2
aI0
aI1
aI2
aI3
aI4
aI7
aI6
aI5
aI4
aI3
aI2
aI1
aI0
aI1
aI2
aI3
aI13
aI12
aI11
aI10
aI11
aI11
aI10
aI9
aI8
aI7
aI6
aI5
aI4
aI3
aI3
aI4
aI5
aI6
aI7
aI8
aI9
aI10
aI11
aI12
aI13
aI22
aI22
aI20
aI19
aI18
aI17
aI16
aI15
aI14
aI13
aI10
aI9
aI8
aI7
aI6
aI5
aI4
aI3
aI2
aI1
aI0
aI1
aI2
aI3
aI4
aI5
aI6
aI7
aI8
aI9
aI10
aI27
aI27
aI27
aI27
aI27
aI27
aI27
aI27
aI27
aI26
aI26
aI26
aI26
aI27
aI28
aI29
aI30
aI40
aI41
aI42
aI43
aI44
aI45
aI46
aI47
aI48
aI48
aI47
aI45
aI44
aI43
aI42
aI41
aI40
aI39
aI36
aI35
aI34
aI33
aI32
aI26
aI25
aI24
aI23
aI22
aI21
aI20
aI19
aI18
aI17
aI16
aI15
aI14
aI12
aI11
aI10
aI9
aI8
aI19
aI18
aI17
aI14
aI13
aI12
aI11
aI9
aI8
aI7
aI6
aI5
aI4
aI3
aI2
aI1
aI1
aI0
aI0
aI0
aI1
aI4
aI5
aI6
aI7
aI8
aI8
aI7
aI6
aI6
aI6
aI6
aI6
aI13
aI13
aI13
aI13
aI14
aI14
aI14
aI14
aI14
aI14
aI13
aI12
aI11
aI10
aI9
aI8
aI7
aI6
aI5
aI4
aI3
aI2
aI1
aI0
aI1
aI2
aI3
aI2
aI1
aI1
aI1
aI0
aI0
aI0
aI1
aI2
aI23
aI22
aI22
aI22
aI22
aI21
aI21
aI1
aI2
aI3
aI4
aI5
aI6
aI10
aI10
aI9
aI8
aI7
aI6
aI5
aI4
aI2
aI1
aI2
aI3
aI4
aI5
aI24
aI6
aI5
aI4
aI3
aI2
aI1
aI0
aI1
aI2
aI17
aI16
aI15
aI14
aI13
aI12
aI11
aI10
aI9
aI10
aI11
aI11
aI10
aI9
aI8
aI7
aI6
aI5
aI4
aI2
aI3
aI4
aI5
aI6
aI7
aI8
aI9
aI10
aI11
aI12
aI13
aI14
aI20
aI19
aI18
aI17
aI16
aI15
aI14
aI13
aI12
aI11
aI9
aI8
aI7
aI6
aI5
aI4
aI3
aI2
aI1
aI1
aI0
aI1
aI2
aI3
aI4
aI5
aI6
aI7
aI8
aI9
aI10
aI25
aI25
aI25
aI26
aI26
aI26
aI26
aI26
aI26
aI26
aI26
aI26
aI25
aI25
aI25
aI25
aI26
aI27
aI28
aI29
aI30
aI39
aI40
aI41
aI42
aI43
aI44
aI45
aI46
aI47
aI47
aI46
aI44
aI43
aI42
aI41
aI40
aI39
aI38
aI26
aI25
aI24
aI23
aI22
aI21
aI20
aI19
aI18
aI17
aI16
aI15
aI14
aI13
aI10
aI9
aI8
aI20
aI19
aI18
aI17
aI16
aI15
aI14
aI13
aI12
aI11
aI10
aI9
aI7
aI6
aI5
aI4
aI3
aI2
aI3
aI2
aI2
aI1
aI1
aI0
aI0
aI1
aI4
aI5
aI6
aI7
aI8
aI8
aI8
aI7
aI6
aI5
aI5
aI5
aI5
aI5
aI9
aI10
aI11
aI11
aI12
aI12
aI12
aI12
aI13
aI13
aI13
aI13
aI13
aI13
aI13
aI12
aI11
aI0
aI13
aI12
aI11
aI10
aI11
aI12
aI13
aI14
aI14
aI0
aI0
aI1
aI10
aI9
aI8
aI7
aI6
aI7
aI8
aI9
aI10
aI9
aI8
aI7
aI3
aI2
aI0
aI1
aI2
aI3
aI4
aI5
aI6
aI7
aI8
aI9
aI10
aI11
aI12
aI13
aI14
aI14
aI0
aI0
aI22
aI21
aI20
aI17
aI5
aI4
aI2
aI1
aI0
aI0
aI1
aI9
aI10
aI11
aI12
aI12
aI13
aI13
aI3
aI4
aI0
aI1
aI2
aI3
aI4
aI5
aI6
aI7
aI8
aI9
aI13
aI13
aI14
aI14
aI14
aI13
aI12
aI11
aI10
aI13
aI12
aI11
aI7
aI6
aI3
aI2
aI1
aI0
aI1
aI2
aI3
aI4
aI5
aI6
aI7
aI8
aI9
aI10
aI11
aI12
aI13
aI14
aI15
aI16
aI16
aI15
aI14
aI9
aI6
aI7
aI8
aI9
aI9
aI10
aI10
aI11
aI12
aI12
aI13
aI14
aI15
aI25
aI26
aI27
aI28
aI29
aI14
aI13
aI12
aI12
aI13
aI13
aI12
aI11
aI10
aI9
aI6
aI5
aI4
aI3
aI2
aI1
aI1
aI0
aI0
aI0
aI0
aI1
aI1
aI12
aI13
aI13
aI14
aI4
aI5
aI6
aI7
aI8
aI9
aI10
aI11
aI12
aI13
aI14
aI15
aI16
aI17
aI18
aI19
aI20
aI10
aI9
aI1
aI2
aI21
aI1
aI34
aI34
aI34
aI35
aI36
aI6
aI5
aI0
aI12
aI11
aI10
aI9
aI10
aI11
aI0
aI0
aI0
aI0
aI0
aI1
aI1
aI2
aI2
aI2
aI10
aI9
aI7
aI8
aI9
aI9
aI8
aI7
aI3
aI2
aI0
aI1
aI2
aI3
aI4
aI5
aI6
aI7
aI8
aI9
aI10
aI11
aI12
aI13
aI14
aI14
aI1
aI1
aI0
aI23
aI22
aI21
aI20
aI2
aI1
aI0
aI1
aI9
aI10
aI11
aI11
aI12
aI9
aI8
aI7
aI6
aI0
aI1
aI2
aI3
aI4
aI5
aI6
aI7
aI8
aI9
aI10
aI10
aI11
aI12
aI12
aI12
aI12
aI13
aI13
aI13
aI12
aI11
aI10
aI9
aI10
aI9
aI8
aI7
aI6
aI5
aI4
aI3
aI2
aI1
aI0
aI1
aI2
aI3
aI4
aI5
aI6
aI7
aI8
aI9
aI10
aI11
aI12
aI13
aI14
aI15
aI14
aI8
aI7
aI6
aI7
aI8
aI8
aI9
aI9
aI10
aI11
aI11
aI12
aI12
aI13
aI14
aI14
aI27
aI28
aI13
aI12
aI11
aI11
aI12
aI12
aI11
aI10
aI9
aI8
aI5
aI4
aI3
aI2
aI1
aI0
aI0
aI0
aI1
aI1
aI1
aI2
aI10
aI11
aI12
aI12
aI3
aI4
aI5
aI6
aI7
aI8
aI9
aI10
aI11
aI12
aI13
aI14
aI15
aI16
aI17
aI18
aI19
aI20
aI0
aI11
aI12
aI13
aI33
aI33
aI35
aI34
aI33
aI32
aI5
aI4
aI3
aI1
aI1
aI11
aI10
aI9
aI8
aI0
aI1
aI1
aI1
aI2
aI3
aI0
aI0
aI0
aI0
aI9
aI8
aI8
aI7
aI6
aI4
aI3
aI2
aI0
aI1
aI2
aI3
aI4
aI5
aI6
aI7
aI8
aI9
aI10
aI11
aI12
aI13
aI14
aI2
aI2
aI22
aI21
aI1
aI0
aI0
aI1
aI9
aI10
aI10
aI8
aI7
aI6
aI5
aI0
aI1
aI2
aI3
aI4
aI5
aI6
aI7
aI8
aI9
aI9
aI9
aI9
aI10
aI11
aI11
aI11
aI11
aI12
aI10
aI9
aI8
aI15
aI16
aI10
aI9
aI8
aI7
aI6
aI5
aI4
aI3
aI2
aI1
aI0
aI0
aI1
aI2
aI3
aI4
aI5
aI6
aI7
aI8
aI9
aI10
aI11
aI12
aI13
aI7
aI6
aI3
aI2
aI2
aI7
aI7
aI8
aI8
aI9
aI10
aI10
aI11
aI11
aI12
aI13
aI13
aI14
aI14
aI21
aI1
aI0
aI0
aI0
aI0
aI0
aI10
aI9
aI8
aI7
aI6
aI6
aI6
aI6
aI5
aI5
aI5
aI5
aI4
aI4
aI4
aI4
aI4
aI5
aI5
aI6
aI6
aI7
aI8
aI9
aI19
aI18
aI17
aI12
aI11
aI10
aI9
aI1
aI1
aI2
aI2
aI3
aI3
aI3
aI3
aI3
aI3
aI3
aI3
aI4
aI5
aI5
aI4
aI3
aI3
aI3
aI2
aI2
aI2
aI2
aI2
aI2
aI9
aI9
aI9
aI10
aI10
aI10
aI10
aI11
aI11
aI11
aI11
aI12
aI12
aI12
aI12
aI13
aI15
aI15
aI14
aI14
aI13
aI12
aI12
aI11
aI10
aI9
aI8
aI7
aI6
aI5
aI4
aI3
aI2
aI1
aI2
aI3
aI4
aI5
aI6
aI7
aI8
aI9
aI10
aI11
aI11
aI10
aI9
aI8
aI7
aI6
aI5
aI4
aI3
aI2
aI1
aI1
aI1
aI1
aI1
aI1
aI1
aI2
aI3
aI4
aI5
aI6
aI7
aI8
aI9
aI10
aI11
aI12
aI13
aI14
aI15
aI15
aI14
aI14
aI15
aI16
aI17
aI18
aI19
aI20
aI21
aI22
aI23
aI24
aI25
aI26
aI27
aI28
aI29
aI30
aI31
aI32
aI33
aI34
aI35
aI34
aI34
aI34
aI34
aI34
aI34
aI35
aI35
aI35
aI35
aI36
aI36
aI36
aI37
aI38
aI38
aI39
aI40
aI40
aI41
aI41
aI42
aI43
aI43
aI43
aI43
aI43
aI43
aI43
aI43
aI42
aI42
aI42
aI42
aI42
aI43
aI43
aI44
aI44
aI44
aI44
aI43
aI43
aI42
aI3
aI18
aI17
aI16
aI15
aI14
aI13
aI12
aI11
aI1
aI1
aI15
aI16
aI17
aI18
aI9
aI8
aI7
aI6
aI5
aI5
aI5
aI5
aI4
aI4
aI4
aI4
aI3
aI3
aI3
aI3
aI3
aI4
aI4
aI5
aI5
aI6
aI7
aI8
aI17
aI0
aI1
aI1
aI2
aI2
aI2
aI2
aI2
aI3
aI4
aI4
aI3
aI2
aI2
aI2
aI1
aI1
aI1
aI1
aI1
aI1
aI8
aI8
aI9
aI9
aI9
aI9
aI10
aI10
aI10
aI10
aI11
aI11
aI11
aI11
aI12
aI15
aI15
aI15
aI15
aI15
aI14
aI14
aI13
aI13
aI12
aI11
aI11
aI10
aI9
aI8
aI7
aI6
aI5
aI4
aI3
aI2
aI1
aI0
aI0
aI2
aI3
aI4
aI5
aI6
aI7
aI8
aI9
aI10
aI11
aI12
aI12
aI11
aI10
aI9
aI8
aI7
aI6
aI5
aI4
aI3
aI2
aI2
aI2
aI2
aI2
aI2
aI2
aI3
aI4
aI5
aI6
aI7
aI8
aI9
aI10
aI11
aI12
aI13
aI14
aI15
aI15
aI14
aI13
aI13
aI14
aI15
aI16
aI17
aI18
aI19
aI20
aI21
aI22
aI23
aI24
aI25
aI26
aI27
aI28
aI29
aI30
aI31
aI32
aI33
aI34
aI33
aI33
aI33
aI33
aI33
aI33
aI34
aI34
aI34
aI34
aI35
aI35
aI35
aI36
aI37
aI37
aI38
aI39
aI39
aI40
aI40
aI41
aI42
aI42
aI42
aI42
aI42
aI42
aI42
aI42
aI41
aI41
aI41
aI41
aI41
aI42
aI42
aI43
aI43
aI43
aI43
aI42
aI42
aI41
aI18
aI17
aI16
aI15
aI14
aI13
aI12
aI11
aI10
aI14
aI15
aI16
aI17
aI7
aI6
aI5
aI4
aI4
aI4
aI4
aI3
aI3
aI3
aI3
aI2
aI2
aI2
aI2
aI2
aI3
aI3
aI4
aI4
aI5
aI6
aI7
aI1
aI0
aI0
aI0
aI1
aI1
aI1
aI1
aI1
aI3
aI2
aI1
aI1
aI1
aI0
aI0
aI0
aI7
aI7
aI8
aI8
aI8
aI8
aI9
aI9
aI9
aI9
aI10
aI10
aI10
aI10
aI11
aI11
aI14
aI14
aI14
aI14
aI14
aI13
aI13
aI12
aI12
aI11
aI10
aI10
aI9
aI8
aI7
aI6
aI0
aI0
aI0
aI0
aI0
aI1
aI1
aI1
aI9
aI10
aI11
aI12
aI13
aI12
aI11
aI10
aI9
aI8
aI7
aI6
aI5
aI4
aI3
aI2
aI1
aI1
aI2
aI3
aI4
aI5
aI6
aI7
aI8
aI9
aI10
aI11
aI12
aI13
aI14
aI15
aI16
aI17
aI18
aI19
aI20
aI21
aI22
aI23
aI24
aI25
aI26
aI27
aI26
aI25
aI24
aI20
aI19
aI18
aI17
aI16
aI15
aI14
aI13
aI13
aI14
aI15
aI16
aI17
aI18
aI19
aI20
aI21
aI22
aI23
aI24
aI25
aI26
aI26
aI25
aI24
aI23
aI22
aI21
aI20
aI19
aI18
aI17
aI16
aI15
aI14
aI1
aI1
aI1
aI1
aI2
aI2
aI2
aI2
aI3
aI3
aI4
aI5
aI6
aI7
aI8
aI9
aI10
aI11
aI12
aI13
aI14
aI15
aI16
aI17
aI18
aI19
aI20
aI21
aI20
aI16
aI15
aI14
aI13
aI3
aI2
aI1
aI0
aI1
aI0
aI0
aI0
aI13
aI14
aI15
aI15
aI16
aI16
aI16
aI16
aI16
aI16
aI1
aI0
aI0
aI1
aI42
aI42
aI41
aI41
aI41
aI41
aI41
aI41
aI41
aI41
aI41
aI41
aI41
aI41
aI40
aI40
aI40
aI40
aI39
aI38
aI37
aI36
aI35
aI34
aI33
aI32
aI31
aI30
aI29
aI28
aI27
aI26
aI25
aI24
aI23
aI22
aI21
aI20
aI19
aI18
aI17
aI16
aI15
aI14
aI13
aI12
aI11
aI6
aI5
aI4
aI6
aI5
aI4
aI1
aI9
aI7
aI8
aI8
aI8
aI8
aI9
aI9
aI9
aI10
aI10
aI11
aI12
aI13
aI14
aI15
aI16
aI16
aI15
aI14
aI13
aI12
aI11
aI10
aI9
aI8
aI7
aI6
aI5
aI4
aI3
aI2
aI1
aI1
aI1
aI1
aI1
aI1
aI1
aI1
aI1
aI1
aI1
aI2
aI3
aI4
aI5
aI5
aI4
aI3
aI2
aI1
aI1
aI0
aI0
aI1
aI1
aI2
aI3
aI4
aI5
aI5
aI8
aI8
aI8
aI8
aI8
aI8
aI17
aI18
aI18
aI17
aI16
aI15
aI14
aI13
aI12
aI11
aI10
aI2
aI3
aI26
aI27
aI28
aI29
aI28
aI28
aI28
aI14
aI8
aI7
aI6
aI5
aI4
aI3
aI2
aI1
aI0
aI1
aI2
aI3
aI3
aI4
aI5
aI6
aI6
aI7
aI8
aI9
aI10
aI10
aI9
aI8
aI7
aI6
aI5
aI4
aI3
aI2
aI1
aI0
aI0
aI1
aI1
aI2
aI3
aI2
aI1
aI0
aI0
aI1
aI2
aI4
aI5
aI6
aI7
aI8
aI9
aI10
aI10
aI9
aI8
aI7
aI6
aI5
aI4
aI3
aI2
aI1
aI0
aI1
aI2
aI5
aI6
aI7
aI8
aI9
aI10
aI10
aI9
aI8
aI7
aI6
aI5
aI4
aI3
aI2
aI1
aI0
aI10
aI11
aI12
aI13
aI13
aI3
aI10
aI9
aI8
aI5
aI4
aI13
aI12
aI11
aI10
aI8
aI7
aI6
aI5
aI4
aI4
aI4
aI3
aI2
aI13
aI15
aI16
aI16
aI17
aI18
aI19
aI20
aI21
aI22
aI23
aI24
aI30
aI31
aI32
aI27
aI26
aI25
aI24
aI23
aI22
aI21
aI20
aI19
aI18
aI17
aI16
aI15
aI8
aI7
aI7
aI6
aI1
aI0
aI0
aI1
aI1
aI2
aI3
aI4
aI5
aI6
aI7
aI8
aI9
aI10
aI10
aI10
aI14
aI15
aI16
aI17
aI3
aI2
aI1
aI0
aI0
aI1
aI0
aI5
aI6
aI7
aI8
aI9
aI10
aI11
aI12
aI12
aI11
aI10
aI9
aI8
aI7
aI6
aI5
aI4
aI3
aI2
aI1
aI0
aI1
aI2
aI3
aI4
aI5
aI6
aI7
aI8
aI9
aI10
aI11
aI12
aI13
aI14
aI15
aI16
aI17
aI18
aI19
aI20
aI21
aI22
aI23
aI24
aI25
aI26
aI27
aI28
aI24
aI23
aI22
aI21
aI13
aI12
aI11
aI10
aI9
aI8
aI7
aI6
aI5
aI4
aI3
aI2
aI1
aI0
aI2
aI1
aI0
aI0
aI1
aI2
aI2
aI2
aI3
aI3
aI4
aI4
aI4
aI5
aI5
aI5
aI5
aI5
aI6
aI6
aI6
aI6
aI6
aI6
aI7
aI7
aI7
aI7
aI7
aI7
aI7
aI6
aI5
aI4
aI3
aI3
aI3
aI3
aI3
aI2
aI2
aI1
aI0
aI0
aI0
aI0
aI1
aI1
aI1
aI1
aI1
aI0
aI0
aI0
aI0
aI0
aI0
aI0
aI1
aI1
aI2
aI3
aI4
aI5
aI6
aI7
aI8
aI9
aI10
aI11
aI12
aI13
aI14
aI15
aI15
aI16
aI16
aI15
aI15
aI15
aI15
aI15
aI14
aI14
aI14
aI14
aI14
aI14
aI13
aI13
aI13
aI13
aI13
aI14
aI14
aI14
aI15
aI15
aI15
aI16
aI15
aI14
aI13
aI12
aI11
aI10
aI9
aI8
aI7
aI6
aI5
aI4
aI3
aI2
aI1
aI1
aI0
aI0
aI0
aI1
aI1
aI0
aI0
aI1
aI1
aI2
aI2
aI2
aI2
aI2
aI2
aI2
aI2
aI3
aI4
aI5
aI6
aI7
aI8
aI8
aI8
aI7
aI7
aI7
aI6
aI6
aI5
aI4
aI3
aI2
aI1
aI0
aI0
aI1
aI2
aI3
aI4
aI5
aI6
aI7
aI8
aI9
aI10
aI11
aI12
aI13
aI14
aI15
aI16
aI17
aI18
aI18
aI17
aI16
aI15
aI15
aI14
aI13
aI12
aI11
aI10
aI9
aI8
aI9
aI10
aI11
aI12
aI13
aI14
aI15
aI16
aI17
aI17
aI16
aI16
aI15
aI15
aI14
aI13
aI12
aI11
aI11
aI10
aI9
aI8
aI7
aI6
aI6
aI6
aI7
aI7
aI8
aI8
aI8
aI6
aI7
aI8
aI9
aI10
aI11
aI12
aI13
aI14
aI14
aI13
aI12
aI11
aI10
aI9
aI8
aI8
aI9
aI9
aI9
aI9
aI9
aI10
aI10
aI10
aI9
aI9
aI9
aI8
aI8
aI8
aI8
aI8
aI8
aI8
aI8
aI8
aI9
aI9
aI9
aI8
aI7
aI7
aI6
aI6
aI6
aI5
aI5
aI4
aI3
aI3
aI3
aI4
aI5
aI6
aI7
aI8
aI9
aI10
aI11
aI12
aI13
aI12
aI11
aI10
aI9
aI8
aI7
aI6
aI5
aI4
aI3
aI2
aI1
aI0
aI0
aI0
aI0
aI1
aI1
aI1
aI1
aI2
aI4
aI5
aI6
aI7
aI8
aI9
aI10
aI11
aI12
aI13
aI14
aI15
aI16
aI17
aI18
aI19
aI20
aI21
aI22
aI23
aI24
aI25
aI26
aI27
aI28
aI28
aI27
aI26
aI25
aI24
aI23
aI22
aI21
aI20
aI19
aI18
aI17
aI16
aI15
aI14
aI17
aI18
aI19
aI19
aI18
aI17
aI17
aI16
aI16
aI15
aI14
aI13
aI12
aI11
aI11
aI11
aI11
aI10
aI10
aI10
aI10
aI10
aI10
aI11
aI12
aI13
aI14
aI15
aI16
aI17
aI18
aI19
aI20
aI21
aI22
aI23
aI23
aI23
aI24
aI23
aI22
aI21
aI20
aI19
aI18
aI17
aI33
aI32
aI31
aI30
aI29
aI28
aI12
aI13
aI14
aI14
aI13
aI12
aI11
aI10
aI9
aI8
aI7
aI6
aI5
aI4
aI3
aI2
aI1
aI1
aI0
aI1
aI0
aI0
aI1
aI1
aI1
aI1
aI1
aI2
aI2
aI3
aI3
aI3
aI4
aI4
aI4
aI4
aI4
aI5
aI5
aI5
aI5
aI5
aI5
aI6
aI6
aI6
aI6
aI6
aI6
aI6
aI5
aI4
aI3
aI2
aI2
aI2
aI2
aI2
aI1
aI1
aI0
aI0
aI1
aI1
aI1
aI2
aI2
aI2
aI2
aI2
aI1
aI1
aI1
aI1
aI1
aI1
aI0
aI0
aI0
aI1
aI2
aI3
aI4
aI5
aI6
aI7
aI8
aI9
aI10
aI11
aI12
aI13
aI14
aI17
aI16
aI18
aI17
aI16
aI14
aI13
aI12
aI11
aI2
aI2
aI11
aI10
aI9
aI8
aI1
aI7
aI2
aI2
aI3
aI3
aI4
aI4
aI2
aI2
aI0
aI1
aI6
aI6
aI19
aI20
aI0
aI0
aI0
aI0
aI11
aI11
aI10
aI9
aI12
aI11
aI10
aI10
aI10
aI11
aI1
aI9
aI8
aI8
aI7
aI5
aI4
aI5
aI4
aI0
aI0
aI1
aI0
aI0
aI0
aI1
aI6
aI5
aI4
aI3
aI4
aI5
aI5
aI5
aI5
aI0
aI4
aI3
aI2
aI1
aI5
aI6
aI6
aI6
aI6
aI6
aI0
aI0
aI3
aI2
aI1
aI0
aI6
aI7
aI7
aI7
aI7
aI6
aI0
aI0
aI2
aI7
aI7
aI8
aI8
aI7
aI6
aI0
aI8
aI8
aI9
aI8
aI7
aI0
aI9
aI9
aI9
aI9
aI8
aI7
aI0
aI9
aI9
aI10
aI10
aI10
aI9
aI8
aI7
aI0
aI9
aI10
aI10
aI11
aI11
aI10
aI9
aI8
aI1
aI1
aI10
aI10
aI11
aI11
aI12
aI12
aI11
aI10
aI9
aI1
aI0
aI1
aI12
aI13
aI11
aI10
aI0
aI8
aI1
aI1
aI11
aI0
aI5
aI6
aI1
aI12
aI11
aI0
aI4
aI1
aI14
aI13
aI12
aI0
aI15
aI15
aI14
aI13
aI14
aI15
aI15
aI11
aI12
aI13
aI14
aI15
aI0
aI15
aI15
aI15
aI15
aI9
aI10
aI11
aI12
aI13
aI14
aI6
aI7
aI8
aI9
aI10
aI14
aI15
aI15
aI12
aI12
aI13
aI5
aI6
aI7
aI8
aI9
aI10
aI13
aI14
aI15
aI1
aI11
aI11
aI11
aI11
aI12
aI12
aI13
aI14
aI2
aI11
aI11
aI10
aI10
aI10
aI10
aI11
aI10
aI11
aI12
aI13
aI1
aI9
aI10
aI11
aI12
aI13
aI14
aI9
aI10
aI11
aI12
aI13
aI14
aI11
aI12
aI13
aI14
aI15
aI12
aI12
aI11
aI12
aI11
aI10
aI11
aI10
aI9
aI10
aI17
aI17
aI18
aI18
aI10
aI9
aI8
aI7
aI11
aI10
aI9
aI8
aI7
aI11
aI10
aI15
aI14
aI15
aI13
aI14
aI15
aI12
aI13
aI14
aI13
aI14
aI0
aI0
aI0
aI0
aI0
aI1
aI1
aI0
aI1
aI0
aI0
aI1
aI0
aI2
aI0
aI0
aI2
aI1
aI0
aI2
aI0
aI0
aI0
aI1
aI1
aI0
aI1
aI1
aI6
aI2
aI7
aI6
aI5
aI2
aI3
aI13
aI14
aI3
aI12
aI13
aI11
aI12
aI11
aI4
aI10
aI3
aI3
aI3
aI3
aI2
aI4
aI2
aI1
aI1
aI3
aI3
aI1
aI0
aI0
aI0
aI0
aI1
aI2
aI2
aI0
aI0
aI0
aI1
aI1
aI0
aI0
aI1
aI2
aI1
aI0
aI1
aI1
aI1
aI2
aI2
aI1
aI2
aI2
aI2
aI3
aI3
aI2
aI2
aI3
aI3
aI4
aI4
aI3
aI3
aI0
aI4
aI4
aI5
aI5
aI4
aI4
aI5
aI6
aI6
aI5
aI7
aI7
aI6
aI8
aI1
aI1
aI1
aI3
aI2
aI4
aI5
aI6
aI7
aI6
aI6
aI6
aI7
aI8
aI7
aI7
aI7
aI4
aI4
aI5
aI6
aI7
aI8
aI9
aI9
aI9
aI8
aI4
aI13
aI14
aI14
aI15
aI8
aI8
aI8
aI5
aI5
aI6
aI7
aI8
aI9
aI10
aI11
aI12
aI13
aI12
aI12
aI11
aI11
aI10
aI9
aI8
aI8
aI5
aI14
aI14
aI14
aI15
aI15
aI15
aI16
aI16
aI15
aI15
aI14
aI14
aI7
aI7
aI7
aI7
aI6
aI6
aI7
aI11
aI12
aI12
aI12
aI11
aI11
aI10
aI10
aI9
aI8
aI7
aI7
aI5
aI15
aI15
aI15
aI16
aI16
aI16
aI17
aI17
aI16
aI16
aI10
aI9
aI9
aI11
aI11
aI11
aI10
aI10
aI3
aI3
aI0
aI0
aI0
aI3
aI23
aI22
aI12
aI11
aI11
aI12
aI1
aI4
aI2
aI23
aI22
aI10
aI4
aI1
aI2
aI24
aI23
aI25
aI24
aI6
aI24
aI25
aI24
aI23
aI7
aI8
aI22
aI23
aI24
aI25
aI24
aI7
aI21
aI22
aI23
aI24
aI24
aI18
aI22
aI23
aI24
aI21
aI22
aI9
aI9
aI8
aI5
aI5
aI1
aI2
aI3
aI1
aI2
aI3
aI4
aI1
aI2
aI3
aI4
aI1
aI2
aI3
aI4
aI4
aI1
aI2
aI3
aI1
aI2
aI3
aI1
aI2
aI3
aI18
aI2
aI4
aI4
aI5
aI5
aI20
aI21
aI5
aI18
aI19
aI20
aI21
aI21
aI20
aI5
aI20
aI19
aI18
aI2
aI0
aI2
aI1
aI1
aI0
aI1
aI2
aI0
aI0
aI1
aI0
aI7
aI5
aI6
aI2
aI3
aI4
aI3
aI1
aI2
aI3
aI1
aI2
aI13
aI14
aI14
aI0
aI0
aI0
aI0
aI0
aI7
aI6
aI5
aI0
aI1
aI1
aI2
aI2
aI9
aI8
aI0
aI0
aI9
aI8
aI0
aI1
aI2
aI10
aI9
aI1
aI1
aI10
aI9
aI2
aI2
aI2
aI2
aI2
aI1
aI0
aI9
aI3
aI3
aI3
aI2
aI3
aI15
aI4
aI1
aI15
aI5
aI5
aI3
aI3
aI2
aI3
aI3
aI6
aI6
aI6
aI6
aI5
aI4
aI4
aI3
aI3
aI1
aI2
aI2
aI2
aI4
aI5
aI5
aI5
aI5
aI6
aI4
aI4
aI4
aI4
aI4
aI4
aI0
aI1
aI4
aI5
aI5
aI5
aI5
aI5
aI5
aI5
aI1
aI4
aI4
aI4
aI4
aI4
aI4
aI4
aI4
aI4
aI4
aI3
aI3
aI3
aI3
aI3
aI3
aI3
aI1
aI2
aI2
aI2
aI2
aI2
aI2
aI0
aI0
aI0
aI1
aI1
aI1
aI1
aI1
aI1
aI3
aI5
aI5
aI5
aI5
aI4
aI4
aI4
aI2
aI1
aI3
aI3
aI1
aI3
aI3
aI2
aI2
aI2
aI9
aI10
aI2
aI3
aI2
aI11
aI3
aI10
aI3
aI2
aI14
aI4
aI5
aI4
aI3
aI2
aI13
aI3
aI3
aI3
aI3
aI3
aI3
aI4
aI4
aI4
aI3
aI2
aI1
aI12
aI12
aI17
aI16
aI2
aI2
aI2
aI2
aI2
aI2
aI2
aI2
aI11
aI11
aI2
aI17
aI16
aI2
aI1
aI1
aI1
aI10
aI2
aI0
aI0
aI0
aI0
aI2
aI2
aI2
aI2
aI0
aI0
aI0
aI2
aI3
aI0
aI0
aI0
aI0
aI0
aI2
aI3
aI4
aI5
aI6
aI7
aI8
aI0
aI1
aI1
aI1
aI1
aI2
aI3
aI3
aI2
aI3
aI4
aI5
aI6
aI7
aI8
aI1
aI2
aI2
aI1
aI2
aI2
aI2
aI3
aI4
aI5
aI6
aI7
aI8
aI9
aI2
aI2
aI2
aI3
aI4
aI5
aI6
aI7
aI8
aI9
aI10
aI2
aI2
aI1
aI2
aI2
aI3
aI4
aI5
aI6
aI7
aI1
aI2
aI3
aI4
aI5
aI6
aI7
aI8
aI2
aI2
aI2
aI3
aI4
aI5
aI6
aI7
aI8
aI8
aI3
aI3
aI4
aI5
aI6
aI7
aI7
aI7
aI2
aI2
aI2
aI1
aI2
aI4
aI5
aI5
aI6
aI6
aI6
aI6
aI6
aI6
aI6
aI1
aI4
aI4
aI4
aI4
aI4
aI5
aI5
aI5
aI5
aI5
aI5
aI5
aI15
aI16
aI3
aI3
aI3
aI3
aI3
aI3
aI4
aI4
aI4
aI4
aI4
aI4
aI3
aI3
aI3
aI8
aI6
aI5
aI4
aI3
aI15
aI1
aI2
aI2
aI2
aI2
aI2
aI2
aI3
aI3
aI3
aI3
aI3
aI3
aI2
aI2
aI2
aI2
aI7
aI6
aI5
aI5
aI4
aI3
aI0
aI0
aI1
aI1
aI1
aI1
aI1
aI1
aI2
asS'Class'
p7
(lp8
I1
aI1
aI1
aI1
aI1
aI1
aI1
aI1
aI1
aI1
aI1
aI1
aI1
aI1
aI1
aI1
aI1
aI1
aI1
aI1
aI1
aI1
aI1
aI1
aI1
aI1
aI1
aI1
aI1
aI1
aI1
aI1
aI1
aI1
aI1
aI1
aI1
aI1
aI1
aI1
aI1
aI1
aI1
aI1
aI1
aI1
aI1
aI1
aI1
aI1
aI1
aI1
aI1
aI1
aI1
aI1
aI1
aI1
aI1
aI1
aI1
aI1
aI1
aI1
aI1
aI1
aI1
aI1
aI1
aI1
aI1
aI1
aI1
aI1
aI1
aI1
aI1
aI1
aI1
aI1
aI1
aI1
aI1
aI1
aI1
aI1
aI1
aI1
aI1
aI1
aI1
aI1
aI1
aI1
aI1
aI1
aI1
aI1
aI1
aI1
aI1
aI1
aI1
aI1
aI1
aI1
aI1
aI1
aI1
aI1
aI1
aI1
aI1
aI1
aI1
aI1
aI1
aI1
aI1
aI1
aI1
aI1
aI1
aI1
aI1
aI1
aI1
aI1
aI1
aI1
aI1
aI1
aI1
aI1
aI1
aI1
aI1
aI1
aI1
aI1
aI1
aI1
aI1
aI1
aI1
aI1
aI1
aI1
aI1
aI1
aI1
aI1
aI1
aI1
aI1
aI1
aI1
aI1
aI1
aI1
aI1
aI1
aI1
aI1
aI1
aI1
aI1
aI1
aI1
aI1
aI1
aI1
aI1
aI1
aI1
aI1
aI1
aI1
aI1
aI1
aI1
aI1
aI1
aI1
aI1
aI1
aI1
aI1
aI1
aI1
aI1
aI1
aI1
aI1
aI1
aI1
aI1
aI1
aI1
aI1
aI1
aI1
aI1
aI1
aI1
aI1
aI1
aI1
aI1
aI1
aI1
aI1
aI1
aI1
aI1
aI1
aI1
aI1
aI1
aI1
aI1
aI1
aI1
aI1
aI1
aI1
aI1
aI1
aI1
aI1
aI1
aI1
aI1
aI1
aI1
aI1
aI1
aI1
aI1
aI1
aI1
aI1
aI1
aI1
aI1
aI1
aI1
aI1
aI1
aI1
aI1
aI1
aI1
aI1
aI1
aI1
aI1
aI1
aI1
aI1
aI1
aI1
aI1
aI1
aI1
aI1
aI1
aI1
aI1
aI1
aI1
aI1
aI1
aI1
aI1
aI1
aI1
aI1
aI1
aI1
aI1
aI1
aI1
aI1
aI1
aI1
aI1
aI1
aI1
aI1
aI1
aI1
aI1
aI1
aI1
aI1
aI1
aI1
aI1
aI1
aI1
aI1
aI1
aI1
aI1
aI1
aI1
aI1
aI1
aI1
aI1
aI1
aI1
aI1
aI1
aI1
aI1
aI1
aI1
aI1
aI1
aI1
aI1
aI1
aI1
aI1
aI1
aI1
aI1
aI1
aI1
aI1
aI1
aI1
aI1
aI1
aI1
aI1
aI1
aI1
aI1
aI1
aI1
aI1
aI1
aI1
aI1
aI1
aI1
aI1
aI1
aI1
aI1
aI1
aI1
aI1
aI1
aI1
aI1
aI1
aI1
aI1
aI1
aI1
aI1
aI1
aI1
aI1
aI1
aI1
aI1
aI1
aI1
aI1
aI1
aI1
aI1
aI1
aI1
aI1
aI1
aI1
aI1
aI1
aI1
aI1
aI1
aI1
aI1
aI1
aI1
aI1
aI1
aI1
aI1
aI1
aI1
aI1
aI1
aI1
aI1
aI1
aI1
aI1
aI1
aI1
aI1
aI1
aI1
aI1
aI1
aI1
aI1
aI1
aI1
aI1
aI1
aI1
aI1
aI1
aI1
aI1
aI1
aI1
aI1
aI1
aI1
aI1
aI1
aI1
aI1
aI1
aI1
aI1
aI1
aI1
aI1
aI1
aI1
aI1
aI1
aI1
aI1
aI1
aI1
aI1
aI1
aI1
aI1
aI1
aI1
aI1
aI1
aI1
aI1
aI1
aI1
aI1
aI1
aI1
aI1
aI1
aI1
aI1
aI1
aI1
aI1
aI1
aI1
aI1
aI1
aI1
aI1
aI1
aI1
aI1
aI1
aI1
aI1
aI1
aI1
aI1
aI1
aI1
aI1
aI1
aI1
aI1
aI1
aI1
aI1
aI1
aI1
aI1
aI1
aI1
aI1
aI1
aI1
aI1
aI2
aI2
aI2
aI2
aI2
aI2
aI2
aI2
aI2
aI2
aI2
aI2
aI2
aI2
aI2
aI2
aI2
aI2
aI2
aI2
aI2
aI2
aI2
aI2
aI2
aI2
aI2
aI2
aI2
aI2
aI2
aI2
aI2
aI2
aI2
aI2
aI2
aI2
aI2
aI2
aI2
aI2
aI2
aI2
aI2
aI2
aI2
aI2
aI2
aI2
aI2
aI2
aI2
aI2
aI2
aI2
aI2
aI2
aI2
aI2
aI2
aI2
aI2
aI2
aI2
aI2
aI2
aI2
aI2
aI2
aI2
aI2
aI2
aI2
aI2
aI2
aI2
aI2
aI2
aI2
aI2
aI2
aI2
aI2
aI2
aI2
aI2
aI2
aI2
aI2
aI2
aI2
aI2
aI2
aI2
aI2
aI2
aI2
aI2
aI2
aI2
aI2
aI2
aI2
aI2
aI2
aI2
aI2
aI2
aI2
aI2
aI2
aI2
aI2
aI2
aI2
aI2
aI2
aI2
aI2
aI2
aI2
aI2
aI2
aI2
aI2
aI2
aI2
aI2
aI2
aI2
aI2
aI2
aI2
aI2
aI2
aI2
aI2
aI2
aI2
aI2
aI2
aI2
aI2
aI2
aI2
aI2
aI2
aI2
aI2
aI2
aI2
aI2
aI2
aI2
aI2
aI2
aI2
aI2
aI2
aI2
aI2
aI2
aI2
aI2
aI2
aI2
aI2
aI2
aI2
aI2
aI2
aI2
aI2
aI2
aI2
aI2
aI2
aI2
aI2
aI2
aI2
aI2
aI2
aI2
aI2
aI2
aI2
aI2
aI2
aI2
aI2
aI2
aI2
aI2
aI2
aI2
aI2
aI2
aI2
aI2
aI2
aI2
aI2
aI2
aI2
aI2
aI2
aI2
aI2
aI2
aI2
aI2
aI2
aI2
aI2
aI2
aI2
aI2
aI2
aI2
aI2
aI2
aI2
aI2
aI2
aI2
aI2
aI2
aI2
aI2
aI2
aI2
aI2
aI2
aI2
aI2
aI2
aI2
aI2
aI2
aI2
aI2
aI2
aI2
aI2
aI2
aI2
aI2
aI2
aI2
aI2
aI2
aI2
aI2
aI2
aI2
aI2
aI2
aI2
aI2
aI2
aI2
aI2
aI2
aI2
aI2
aI2
aI2
aI2
aI2
aI2
aI2
aI2
aI2
aI2
aI2
aI2
aI2
aI2
aI2
aI2
aI2
aI2
aI2
aI2
aI2
aI2
aI2
aI2
aI2
aI2
aI2
aI2
aI2
aI2
aI2
aI2
aI2
aI2
aI2
aI2
aI2
aI2
aI2
aI2
aI2
aI2
aI2
aI2
aI2
aI2
aI2
aI2
aI2
aI2
aI2
aI2
aI2
aI2
aI2
aI2
aI2
aI2
aI2
aI2
aI2
aI2
aI2
aI2
aI2
aI2
aI2
aI2
aI2
aI2
aI2
aI2
aI2
aI2
aI2
aI2
aI2
aI2
aI2
aI2
aI2
aI2
aI2
aI2
aI2
aI2
aI2
aI2
aI2
aI2
aI2
aI2
aI2
aI2
aI2
aI2
aI2
aI2
aI2
aI2
aI2
aI2
aI2
aI2
aI2
aI2
aI2
aI2
aI2
aI2
aI2
aI2
aI2
aI2
aI2
aI2
aI2
aI2
aI2
aI2
aI2
aI2
aI2
aI2
aI2
aI2
aI2
aI2
aI2
aI2
aI2
aI2
aI2
aI2
aI2
aI2
aI2
aI2
aI2
aI2
aI2
aI2
aI2
aI2
aI2
aI2
aI2
aI2
aI2
aI2
aI2
aI2
aI2
aI2
aI2
aI2
aI2
aI2
aI2
aI2
aI2
aI2
aI2
aI2
aI2
aI2
aI2
aI2
aI2
aI2
aI2
aI2
aI2
aI2
aI2
aI2
aI2
aI2
aI2
aI2
aI2
aI2
aI2
aI2
aI2
aI2
aI2
aI2
aI2
aI2
aI2
aI2
aI2
aI2
aI2
aI2
aI2
aI2
aI2
aI2
aI2
aI2
aI2
aI2
aI2
aI2
aI2
aI2
aI2
aI2
aI2
aI2
aI2
aI2
aI2
aI2
aI2
aI2
aI2
aI2
aI2
aI2
aI2
aI2
aI2
aI2
aI2
aI2
aI2
aI2
aI2
aI2
aI2
aI2
aI3
aI3
aI3
aI3
aI3
aI3
aI3
aI3
aI3
aI3
aI3
aI3
aI3
aI3
aI3
aI3
aI3
aI3
aI3
aI3
aI3
aI3
aI3
aI3
aI3
aI3
aI3
aI3
aI3
aI3
aI3
aI3
aI3
aI3
aI3
aI3
aI3
aI3
aI3
aI3
aI3
aI3
aI3
aI3
aI3
aI3
aI3
aI3
aI3
aI3
aI3
aI3
aI3
aI3
aI3
aI3
aI3
aI3
aI3
aI3
aI3
aI3
aI3
aI3
aI3
aI3
aI3
aI3
aI3
aI3
aI3
aI3
aI3
aI3
aI3
aI3
aI3
aI3
aI3
aI3
aI3
aI3
aI3
aI3
aI3
aI3
aI3
aI3
aI3
aI3
aI3
aI3
aI3
aI3
aI3
aI3
aI3
aI3
aI3
aI3
aI3
aI3
aI3
aI3
aI3
aI3
aI3
aI3
aI3
aI3
aI3
aI3
aI3
aI3
aI3
aI3
aI3
aI3
aI3
aI3
aI3
aI3
aI3
aI3
aI3
aI3
aI3
aI3
aI3
aI3
aI3
aI3
aI3
aI3
aI3
aI3
aI3
aI3
aI3
aI3
aI3
aI3
aI3
aI3
aI3
aI3
aI3
aI3
aI3
aI3
aI3
aI3
aI3
aI3
aI3
aI3
aI3
aI3
aI3
aI3
aI3
aI3
aI3
aI3
aI3
aI3
aI3
aI3
aI3
aI3
aI3
aI3
aI3
aI3
aI3
aI3
aI3
aI3
aI3
aI3
aI3
aI3
aI3
aI3
aI3
aI3
aI3
aI3
aI3
aI3
aI3
aI3
aI3
aI3
aI3
aI3
aI3
aI3
aI3
aI3
aI3
aI3
aI3
aI3
aI3
aI3
aI3
aI3
aI3
aI3
aI3
aI3
aI3
aI3
aI3
aI3
aI3
aI3
aI3
aI3
aI3
aI3
aI3
aI3
aI3
aI3
aI3
aI3
aI3
aI3
aI3
aI3
aI3
aI3
aI3
aI3
aI3
aI3
aI3
aI3
aI3
aI3
aI3
aI3
aI3
aI3
aI3
aI3
aI3
aI3
aI3
aI3
aI3
aI3
aI3
aI3
aI3
aI3
aI3
aI3
aI3
aI3
aI3
aI3
aI3
aI3
aI3
aI3
aI3
aI3
aI3
aI3
aI3
aI3
aI3
aI3
aI3
aI3
aI3
aI3
aI3
aI3
aI3
aI3
aI3
aI3
aI3
aI3
aI3
aI3
aI3
aI3
aI3
aI3
aI3
aI3
aI3
aI3
aI3
aI3
aI3
aI3
aI3
aI3
aI3
aI3
aI3
aI3
aI3
aI3
aI3
aI3
aI3
aI3
aI3
aI3
aI3
aI3
aI3
aI3
aI3
aI3
aI3
aI3
aI3
aI3
aI3
aI3
aI3
aI3
aI3
aI3
aI3
aI3
aI3
aI3
aI3
aI3
aI3
aI3
aI3
aI3
aI3
aI3
aI3
aI3
aI3
aI3
aI3
aI3
aI3
aI3
aI3
aI3
aI3
aI3
aI3
aI3
aI3
aI3
aI3
aI3
aI3
aI3
aI3
aI3
aI3
aI3
aI3
aI3
aI3
aI3
aI3
aI3
aI3
aI3
aI3
aI3
aI3
aI3
aI3
aI3
aI3
aI3
aI3
aI3
aI3
aI3
aI3
aI3
aI3
aI3
aI3
aI3
aI3
aI3
aI3
aI3
aI3
aI3
aI3
aI3
aI3
aI3
aI3
aI3
aI3
aI3
aI3
aI3
aI3
aI3
aI3
aI3
aI3
aI3
aI3
aI3
aI3
aI3
aI3
aI3
aI3
aI3
aI3
aI3
aI3
aI3
aI3
aI3
aI3
aI3
aI3
aI3
aI3
aI3
aI3
aI3
aI3
aI3
aI3
aI3
aI3
aI3
aI3
aI3
aI3
aI3
aI3
aI3
aI3
aI3
aI3
aI3
aI3
aI3
aI3
aI3
aI3
aI3
aI3
aI3
aI3
aI3
aI3
aI3
aI3
aI3
aI3
aI3
aI3
aI3
aI3
aI3
aI3
aI3
aI3
aI3
aI3
aI3
aI3
aI3
aI3
aI3
aI3
aI3
aI3
aI3
aI3
aI3
aI3
aI3
aI3
aI3
aI3
aI3
aI3
aI3
aI3
aI3
aI4
aI4
aI4
aI4
aI4
aI4
aI4
aI4
aI4
aI4
aI4
aI4
aI4
aI4
aI4
aI4
aI4
aI4
aI4
aI4
aI4
aI4
aI4
aI4
aI4
aI4
aI4
aI4
aI4
aI4
aI4
aI4
aI4
aI4
aI4
aI4
aI4
aI4
aI4
aI4
aI4
aI4
aI4
aI4
aI4
aI4
aI4
aI4
aI4
aI4
aI4
aI4
aI4
aI4
aI4
aI4
aI4
aI4
aI4
aI4
aI4
aI4
aI4
aI4
aI4
aI4
aI4
aI4
aI4
aI4
aI4
aI4
aI4
aI4
aI4
aI4
aI4
aI4
aI4
aI4
aI4
aI4
aI4
aI4
aI4
aI4
aI4
aI4
aI4
aI4
aI4
aI4
aI4
aI4
aI4
aI4
aI4
aI4
aI4
aI4
aI4
aI4
aI4
aI4
aI4
aI4
aI4
aI4
aI4
aI4
aI4
aI4
aI4
aI4
aI4
aI4
aI4
aI4
aI4
aI4
aI4
aI4
aI4
aI4
aI4
aI4
aI4
aI4
aI4
aI4
aI4
aI4
aI4
aI4
aI4
aI4
aI4
aI4
aI4
aI4
aI4
aI4
aI4
aI4
aI4
aI4
aI4
aI4
aI4
aI4
aI4
aI4
aI4
aI4
aI4
aI4
aI4
aI4
aI4
aI4
aI4
aI4
aI4
aI4
aI4
aI4
aI4
aI4
aI4
aI4
aI4
aI4
aI4
aI4
aI4
aI4
aI4
aI4
aI4
aI4
aI4
aI4
aI4
aI4
aI4
aI4
aI4
aI4
aI4
aI4
aI4
aI4
aI4
aI4
aI4
aI4
aI4
aI4
aI4
aI4
aI4
aI4
aI4
aI4
aI4
aI4
aI4
aI4
aI4
aI4
aI4
aI4
aI4
aI4
aI4
aI4
aI4
aI4
aI4
aI4
aI4
aI4
aI4
aI4
aI4
aI4
aI4
aI4
aI4
aI4
aI4
aI4
aI4
aI4
aI4
aI4
aI4
aI4
aI4
aI4
aI4
aI4
aI4
aI4
aI4
aI4
aI4
aI4
aI4
aI4
aI4
aI4
aI4
aI4
aI4
aI4
aI4
aI4
aI4
aI4
aI4
aI4
aI4
aI4
aI4
aI4
aI4
aI4
aI4
aI4
aI4
aI4
aI4
aI4
aI4
aI4
aI4
aI4
aI4
aI4
aI4
aI4
aI4
aI4
aI4
aI4
aI4
aI4
aI4
aI4
aI4
aI4
aI4
aI4
aI4
aI4
aI4
aI4
aI4
aI4
aI4
aI4
aI4
aI4
aI4
aI4
aI4
aI4
aI4
aI4
aI4
aI4
aI4
aI4
aI4
aI4
aI4
aI4
aI4
aI4
aI4
aI4
aI4
aI4
aI4
aI4
aI4
aI4
aI4
aI4
aI4
aI4
aI4
aI4
aI4
aI4
aI4
aI4
aI4
aI4
aI4
aI4
aI4
aI4
aI4
aI4
aI4
aI4
aI4
aI4
aI4
aI4
aI4
aI4
aI4
aI4
aI4
aI4
aI4
aI4
aI4
aI4
aI4
aI4
aI4
aI4
aI4
aI4
aI4
aI4
aI4
aI4
aI4
aI4
aI4
aI4
aI4
aI4
aI4
aI4
aI4
aI4
aI4
aI4
aI4
aI4
aI4
aI4
aI4
aI4
aI4
aI4
aI4
aI4
aI4
aI4
aI4
aI4
aI4
aI4
aI4
aI4
aI4
aI4
aI4
aI4
aI4
aI4
aI4
aI4
aI4
aI4
aI4
aI4
aI4
aI4
aI4
aI4
aI4
aI4
aI4
aI4
aI4
aI4
aI4
aI4
aI4
aI4
aI4
aI4
aI4
aI4
aI4
aI4
aI4
aI4
aI4
aI4
aI4
aI4
aI4
aI4
aI4
aI4
aI4
aI4
aI4
aI4
aI4
aI4
aI4
aI4
aI4
aI4
aI4
aI4
aI4
aI4
aI4
aI4
aI4
aI4
aI4
aI4
aI4
aI4
aI4
aI4
aI4
aI4
aI4
aI4
aI4
aI4
aI4
aI4
aI4
aI4
aI4
aI4
aI4
aI4
aI4
aI4
aI4
aI4
aI4
aI4
aI4
aI4
aI4
aI4
aI4
aI4
aI4
aI4
aI4
aI4
aI4
aI4
aI5
aI5
aI5
aI5
aI5
aI5
aI5
aI5
aI5
aI5
aI5
aI5
aI5
aI5
aI5
aI5
aI5
aI5
aI5
aI5
aI5
aI5
aI5
aI5
aI5
aI5
aI5
aI5
aI5
aI5
aI5
aI5
aI5
aI5
aI5
aI5
aI5
aI5
aI5
aI5
aI5
aI5
aI5
aI5
aI5
aI5
aI5
aI5
aI5
aI5
aI5
aI5
aI5
aI5
aI5
aI5
aI5
aI5
aI5
aI5
aI5
aI5
aI5
aI5
aI5
aI5
aI5
aI5
aI5
aI5
aI5
aI5
aI5
aI5
aI5
aI5
aI5
aI5
aI5
aI5
aI5
aI5
aI5
aI5
aI5
aI5
aI5
aI5
aI5
aI5
aI5
aI5
aI5
aI5
aI5
aI5
aI5
aI5
aI5
aI5
aI5
aI5
aI5
aI5
aI5
aI5
aI5
aI5
aI5
aI5
aI5
aI5
aI5
aI5
aI5
aI5
aI5
aI5
aI5
aI5
aI5
aI5
aI5
aI5
aI5
aI5
aI5
aI5
aI5
aI5
aI5
aI5
aI5
aI5
aI5
aI5
aI5
aI5
aI5
aI5
aI5
aI5
aI5
aI5
aI5
aI5
aI5
aI5
aI5
aI5
aI5
aI5
aI5
aI5
aI5
aI5
aI5
aI5
aI5
aI5
aI5
aI5
aI5
aI5
aI5
aI5
aI5
aI5
aI5
aI5
aI5
aI5
aI5
aI5
aI5
aI5
aI5
aI5
aI5
aI5
aI5
aI5
aI5
aI5
aI5
aI5
aI5
aI5
aI5
aI5
aI5
aI5
aI5
aI5
aI5
aI5
aI5
aI5
aI5
aI5
aI5
aI5
aI5
aI5
aI5
aI5
aI5
aI5
aI5
aI5
aI5
aI5
aI5
aI5
aI5
aI5
aI5
aI5
aI5
aI5
aI5
aI5
aI5
aI5
aI5
aI5
aI5
aI5
aI5
aI5
aI5
aI5
aI5
aI5
aI5
aI5
aI5
aI5
aI5
aI5
aI5
aI5
aI5
aI5
aI5
aI5
aI5
aI5
aI5
aI5
aI5
aI5
aI5
aI5
aI5
aI5
aI5
aI5
aI5
aI5
aI5
aI5
aI5
aI5
aI5
aI5
aI5
aI5
aI5
aI5
aI5
aI5
aI5
aI5
aI5
aI5
aI5
aI5
aI5
aI5
aI5
aI5
aI5
aI5
aI5
aI5
aI5
aI5
aI5
aI5
aI5
aI5
aI5
aI5
aI5
aI5
aI5
aI5
aI5
aI5
aI5
aI5
aI5
aI5
aI5
aI5
aI5
aI5
aI5
aI5
aI5
aI5
aI5
aI5
aI5
aI5
aI5
aI5
aI5
aI5
aI5
aI5
aI5
aI5
aI5
aI5
aI5
aI5
aI5
aI5
aI5
aI5
aI5
aI5
aI5
aI5
aI5
aI5
aI5
aI5
aI5
aI5
aI5
aI5
aI5
aI5
aI5
aI5
aI5
aI5
aI5
aI5
aI5
aI5
aI5
aI5
aI5
aI5
aI5
aI5
aI5
aI5
aI5
aI5
aI5
aI5
aI5
aI5
aI5
aI5
aI5
aI5
aI5
aI5
aI5
aI5
aI5
aI5
aI5
aI5
aI5
aI5
aI5
aI5
aI5
aI5
aI5
aI5
aI5
aI5
aI5
aI5
aI5
aI5
aI5
aI5
aI5
aI5
aI5
aI5
aI5
aI5
aI5
aI5
aI5
aI5
aI5
aI5
aI5
aI5
aI5
aI5
aI5
aI5
aI5
aI5
aI5
aI5
aI5
aI5
aI5
aI5
aI5
aI5
aI5
aI5
aI5
aI5
aI5
aI5
aI5
aI5
aI5
aI5
aI5
aI5
aI5
aI5
aI5
aI5
aI5
aI5
aI5
aI5
aI5
aI5
aI5
aI5
aI5
aI5
aI5
aI5
aI5
aI5
aI5
aI5
aI5
aI5
aI5
aI5
aI5
aI5
aI5
aI5
aI5
aI5
aI5
aI5
aI5
aI5
aI5
aI5
aI5
aI5
aI5
aI5
aI5
aI5
aI5
aI5
aI5
aI5
aI5
aI5
aI5
aI5
aI5
aI5
aI5
aI5
aI5
aI5
aI5
aI5
aI5
aI5
aI5
aI5
aI5
aI5
aI6
aI6
aI6
aI6
aI6
aI6
aI6
aI6
aI6
aI6
aI6
aI6
aI6
aI6
aI6
aI6
aI6
aI6
aI6
aI6
aI6
aI6
aI6
aI6
aI6
aI6
aI6
aI6
aI6
aI6
aI6
aI6
aI6
aI6
aI6
aI6
aI6
aI6
aI6
aI6
aI6
aI6
aI6
aI6
aI6
aI6
aI6
aI6
aI6
aI6
aI6
aI6
aI6
aI6
aI6
aI6
aI6
aI6
aI6
aI6
aI6
aI6
aI6
aI6
aI6
aI6
aI6
aI6
aI6
aI6
aI6
aI6
aI6
aI6
aI6
aI6
aI6
aI6
aI6
aI6
aI6
aI6
aI6
aI6
aI6
aI6
aI6
aI6
aI6
aI6
aI6
aI6
aI6
aI6
aI6
aI6
aI6
aI6
aI6
aI6
aI6
aI6
aI6
aI6
aI6
aI6
aI6
aI6
aI6
aI6
aI6
aI6
aI6
aI6
aI6
aI6
aI6
aI6
aI6
aI6
aI6
aI6
aI6
aI6
aI6
aI6
aI6
aI6
aI6
aI6
aI6
aI6
aI6
aI6
aI6
aI6
aI6
aI6
aI6
aI6
aI6
aI6
aI6
aI6
aI6
aI6
aI6
aI6
aI6
aI6
aI6
aI6
aI6
aI6
aI6
aI6
aI6
aI6
aI6
aI6
aI6
aI6
aI6
aI6
aI6
aI6
aI6
aI6
aI6
aI6
aI6
aI6
aI6
aI6
aI6
aI6
aI6
aI6
aI6
aI6
aI6
aI6
aI6
aI6
aI6
aI6
aI6
aI6
aI6
aI6
aI6
aI6
aI6
aI6
aI6
aI6
aI6
aI6
aI6
aI6
aI6
aI6
aI6
aI6
aI6
aI6
aI6
aI6
aI6
aI6
aI6
aI6
aI6
aI6
aI6
aI6
aI6
aI6
aI6
aI6
aI6
aI6
aI6
aI6
aI6
aI6
aI6
aI6
aI6
aI6
aI6
aI6
aI6
aI6
aI6
aI6
aI6
aI6
aI6
aI6
aI6
aI6
aI6
aI6
aI6
aI6
aI6
aI6
aI6
aI6
aI6
aI6
aI6
aI6
aI6
aI6
aI6
aI6
aI6
aI6
aI6
aI6
aI6
aI6
aI6
aI6
aI6
aI6
aI6
aI6
aI6
aI6
aI6
aI6
aI6
aI6
aI6
aI6
aI6
aI6
aI6
aI6
aI6
aI6
aI6
aI6
aI6
aI6
aI6
aI6
aI6
aI6
aI6
aI6
aI6
aI6
aI6
aI6
aI6
aI6
aI6
aI6
aI6
aI6
aI6
aI6
aI6
aI6
aI6
aI6
aI6
aI6
aI6
aI6
aI6
aI6
aI6
aI6
aI6
aI6
aI6
aI6
aI6
aI6
aI6
aI6
aI6
aI6
aI6
aI6
aI6
aI6
aI6
aI6
aI6
aI6
aI6
aI6
aI6
aI6
aI6
aI6
aI6
aI6
aI6
aI6
aI6
aI6
aI6
aI6
aI6
aI6
aI6
aI6
aI6
aI6
aI6
aI6
aI6
aI6
aI6
aI6
aI6
aI6
aI6
aI6
aI6
aI6
aI6
aI6
aI6
aI6
aI6
aI6
aI6
aI6
aI6
aI6
aI6
aI6
aI6
aI6
aI6
aI6
aI6
aI6
aI6
aI6
aI6
aI6
aI6
aI6
aI6
aI6
aI6
aI6
aI6
aI6
aI6
aI6
aI6
aI6
aI6
aI6
aI6
aI6
aI6
aI6
aI6
aI6
aI6
aI6
aI6
aI6
aI6
aI6
aI6
aI6
aI6
aI6
aI6
aI6
aI6
aI6
aI6
aI6
aI6
aI6
aI6
aI6
aI6
aI6
aI6
aI6
aI6
aI6
aI6
aI6
aI6
aI6
aI6
aI6
aI6
aI6
aI6
aI6
aI6
aI6
aI6
aI6
aI6
aI6
aI6
aI6
aI6
aI6
aI6
aI6
aI6
aI6
aI6
aI6
aI6
aI6
aI6
aI6
aI6
aI6
aI6
aI6
aI6
aI6
aI6
aI6
aI6
aI6
aI6
aI6
aI6
aI6
aI6
aI6
aI6
aI6
aI6
aI6
aI6
aI6
aI6
aI6
aI6
aI6
aI6
aI6
aI6
aI6
aI6
aI6
aI6
aI6
aI7
aI7
aI7
aI7
aI7
aI7
aI7
aI7
aI7
aI7
aI7
aI7
aI7
aI7
aI7
aI7
aI7
aI7
aI7
aI7
aI7
aI7
aI7
aI7
aI7
aI7
aI7
aI7
aI7
aI7
aI7
aI7
aI7
aI7
aI7
aI7
aI7
aI7
aI7
aI7
aI7
aI7
aI7
aI7
aI7
aI7
aI7
aI7
aI7
aI7
aI7
aI7
aI7
aI7
aI7
aI7
aI7
aI7
aI7
aI7
aI7
aI7
aI7
aI7
aI7
aI7
aI7
aI7
aI7
aI7
aI7
aI7
aI7
aI7
aI7
aI7
aI7
aI7
aI7
aI7
aI7
aI7
aI7
aI7
aI7
aI7
aI7
aI7
aI7
aI7
aI7
aI7
aI7
aI7
aI7
aI7
aI7
aI7
aI7
aI7
aI7
aI7
aI7
aI7
aI7
aI7
aI7
aI7
aI7
aI7
aI7
aI7
aI7
aI7
aI7
aI7
aI7
aI7
aI7
aI7
aI7
aI7
aI7
aI7
aI7
aI7
aI7
aI7
aI7
aI7
aI7
aI7
aI7
aI7
aI7
aI7
aI7
aI7
aI7
aI7
aI7
aI7
aI7
aI7
aI7
aI7
aI7
aI7
aI7
aI7
aI7
aI7
aI7
aI7
aI7
aI7
aI7
aI7
aI7
aI7
aI7
aI7
aI7
aI7
aI7
aI7
aI7
aI7
aI7
aI7
aI7
aI7
aI7
aI7
aI7
aI7
aI7
aI7
aI7
aI7
aI7
aI7
aI7
aI7
aI7
aI7
aI7
aI7
aI7
aI7
aI7
aI7
aI7
aI7
aI7
aI7
aI7
aI7
aI7
aI7
aI7
aI7
aI7
aI7
aI7
aI7
aI7
aI7
aI7
aI7
aI7
aI7
aI7
aI7
aI7
aI7
aI7
aI7
aI7
aI7
aI7
aI7
aI7
aI7
aI7
aI7
aI7
aI7
aI7
aI7
aI7
aI7
aI7
aI7
aI7
aI7
aI7
aI7
aI7
aI7
aI7
aI7
aI7
aI7
aI7
aI7
aI7
aI7
aI7
aI7
aI7
aI7
aI7
aI7
aI7
aI7
aI7
aI7
aI7
aI7
aI7
aI7
aI7
aI7
aI7
aI7
aI7
aI7
aI7
aI7
aI7
aI7
aI7
aI7
aI7
aI7
aI7
aI7
aI7
aI7
aI7
aI7
aI7
aI7
aI7
aI7
aI7
aI7
aI7
aI7
aI7
aI7
aI7
aI7
aI7
aI7
aI7
aI7
aI7
aI7
aI7
aI7
aI7
aI7
aI7
aI7
aI7
aI7
aI7
aI7
aI7
aI7
aI7
aI7
aI7
aI7
aI7
aI7
aI7
aI7
aI7
aI7
aI7
aI7
aI7
aI7
aI7
aI7
aI7
aI7
aI7
aI7
aI7
aI7
aI7
aI7
aI7
aI7
aI7
aI7
aI7
aI7
aI7
aI7
aI7
aI7
aI7
aI7
aI7
aI7
aI7
aI7
aI7
aI7
aI7
aI7
aI7
aI7
aI7
aI7
aI7
aI7
aI7
aI7
aI7
aI7
aI7
aI7
aI7
aI7
aI7
aI7
aI7
aI7
aI7
aI7
aI7
aI7
aI7
aI7
aI7
aI7
aI7
aI7
aI7
aI7
aI7
aI7
aI7
aI7
aI7
aI7
aI7
aI7
aI7
aI7
aI7
aI7
aI7
aI7
aI7
aI7
aI7
aI7
aI7
aI7
aI7
aI7
aI7
aI7
aI7
aI7
aI7
aI7
aI7
aI7
aI7
aI7
aI7
aI7
aI7
aI7
aI7
aI7
aI7
aI7
aI7
aI7
aI7
aI7
aI7
aI7
aI7
aI7
aI7
aI7
aI7
aI7
aI7
aI7
aI7
aI7
aI7
aI7
aI7
aI7
aI7
aI7
aI7
aI7
aI7
aI7
aI7
aI7
aI7
aI7
aI7
aI7
aI7
aI7
aI7
aI7
aI7
aI7
aI7
aI7
aI7
aI7
aI7
aI7
aI7
aI7
aI7
aI7
aI7
aI7
aI7
aI7
aI7
aI7
aI7
aI7
aI7
aI7
aI7
aI7
aI7
aI7
aI7
aI7
aI7
aI7
aI7
aI7
aI7
aI7
aI7
aI7
aI7
aI7
aI8
aI8
aI8
aI8
aI8
aI8
aI8
aI8
aI8
aI8
aI8
aI8
aI8
aI8
aI8
aI8
aI8
aI8
aI8
aI8
aI8
aI8
aI8
aI8
aI8
aI8
aI8
aI8
aI8
aI8
aI8
aI8
aI8
aI8
aI8
aI8
aI8
aI8
aI8
aI8
aI8
aI8
aI8
aI8
aI8
aI8
aI8
aI8
aI8
aI8
aI8
aI8
aI8
aI8
aI8
aI8
aI8
aI8
aI8
aI8
aI8
aI8
aI8
aI8
aI8
aI8
aI8
aI8
aI8
aI8
aI8
aI8
aI8
aI8
aI8
aI8
aI8
aI8
aI8
aI8
aI8
aI8
aI8
aI8
aI8
aI8
aI8
aI8
aI8
aI8
aI8
aI8
aI8
aI8
aI8
aI8
aI8
aI8
aI8
aI8
aI8
aI8
aI8
aI8
aI8
aI8
aI8
aI8
aI8
aI8
aI8
aI8
aI8
aI8
aI8
aI8
aI8
aI8
aI8
aI8
aI8
aI8
aI8
aI8
aI8
aI8
aI8
aI8
aI8
aI8
aI8
aI8
aI8
aI8
aI8
aI8
aI8
aI8
aI8
aI8
aI8
aI8
aI8
aI8
aI8
aI8
aI8
aI8
aI8
aI8
aI8
aI8
aI8
aI8
aI8
aI8
aI8
aI8
aI8
aI8
aI8
aI8
aI8
aI8
aI8
aI8
aI8
aI8
aI8
aI8
aI8
aI8
aI8
aI8
aI8
aI8
aI8
aI8
aI8
aI8
aI8
aI8
aI8
aI8
aI8
aI8
aI8
aI8
aI8
aI8
aI8
aI8
aI8
aI8
aI8
aI8
aI8
aI8
aI8
aI8
aI8
aI8
aI8
aI8
aI8
aI8
aI8
aI8
aI8
aI8
aI8
aI8
aI8
aI8
aI8
aI8
aI8
aI8
aI8
aI8
aI8
aI8
aI8
aI8
aI8
aI8
aI8
aI8
aI8
aI8
aI8
aI8
aI8
aI8
aI8
aI8
aI8
aI8
aI8
aI8
aI8
aI8
aI8
aI8
aI8
aI8
aI8
aI8
aI8
aI8
aI8
aI8
aI8
aI8
aI8
aI8
aI8
aI8
aI8
aI8
aI8
aI8
aI8
aI8
aI8
aI8
aI8
aI8
aI8
aI8
aI8
aI8
aI8
aI8
aI8
aI8
aI8
aI8
aI8
aI8
aI8
aI8
aI8
aI8
aI8
aI8
aI8
aI8
aI8
aI8
aI8
aI8
aI8
aI8
aI8
aI8
aI8
aI8
aI8
aI8
aI8
aI8
aI8
aI8
aI8
aI8
aI8
aI8
aI8
aI8
aI8
aI8
aI8
aI8
aI8
aI8
aI8
aI8
aI8
aI8
aI8
aI8
aI8
aI8
aI8
aI8
aI8
aI8
aI8
aI8
aI8
aI8
aI8
aI8
aI8
aI8
aI8
aI8
aI8
aI8
aI8
aI8
aI8
aI8
aI8
aI8
aI8
aI8
aI8
aI8
aI8
aI8
aI8
aI8
aI8
aI8
aI8
aI8
aI8
aI8
aI8
aI8
aI8
aI8
aI8
aI8
aI8
aI8
aI8
aI8
aI8
aI8
aI8
aI8
aI8
aI8
aI8
aI8
aI8
aI8
aI8
aI8
aI8
aI8
aI8
aI8
aI8
aI8
aI8
aI8
aI8
aI8
aI8
aI8
aI8
aI8
aI8
aI8
aI8
aI8
aI8
aI8
aI8
aI8
aI8
aI8
aI8
aI8
aI8
aI8
aI8
aI8
aI8
aI8
aI8
aI8
aI8
aI8
aI8
aI8
aI8
aI8
aI8
aI8
aI8
aI8
aI8
aI8
aI8
aI8
aI8
aI8
aI8
aI8
aI8
aI8
aI8
aI8
aI8
aI8
aI8
aI8
aI8
aI8
aI8
aI8
aI8
aI8
aI8
aI8
aI8
aI8
aI8
aI8
aI8
aI8
aI8
aI8
aI8
aI8
aI8
aI8
aI8
aI8
aI8
aI8
aI8
aI8
aI8
aI8
aI8
aI8
aI8
aI8
aI8
aI8
aI8
aI8
aI8
aI8
aI8
aI8
aI8
aI8
aI8
aI8
aI8
aI8
aI8
aI8
aI8
aI8
aI8
aI8
aI8
aI8
aI8
aI8
aI8
aI8
aI9
aI9
aI9
aI9
aI9
aI9
aI9
aI9
aI9
aI9
aI9
aI9
aI9
aI9
aI9
aI9
aI9
aI9
aI9
aI9
aI9
aI9
aI9
aI9
aI9
aI9
aI9
aI9
aI9
aI9
aI9
aI9
aI9
aI9
aI9
aI9
aI9
aI9
aI9
aI9
aI9
aI9
aI9
aI9
aI9
aI9
aI9
aI9
aI9
aI9
aI9
aI9
aI9
aI9
aI9
aI9
aI9
aI9
aI9
aI9
aI9
aI9
aI9
aI9
aI9
aI9
aI9
aI9
aI9
aI9
aI9
aI9
aI9
aI9
aI9
aI9
aI9
aI9
aI9
aI9
aI9
aI9
aI9
aI9
aI9
aI9
aI9
aI9
aI9
aI9
aI9
aI9
aI9
aI9
aI9
aI9
aI9
aI9
aI9
aI9
aI9
aI9
aI9
aI9
aI9
aI9
aI9
aI9
aI9
aI9
aI9
aI9
aI9
aI9
aI9
aI9
aI9
aI9
aI9
aI9
aI9
aI9
aI9
aI9
aI9
aI9
aI9
aI9
aI9
aI9
aI9
aI9
aI9
aI9
aI9
aI9
aI9
aI9
aI9
aI9
aI9
aI9
aI9
aI9
aI9
aI9
aI9
aI9
aI9
aI9
aI9
aI9
aI9
aI9
aI9
aI9
aI9
aI9
aI9
aI9
aI9
aI9
aI9
aI9
aI9
aI9
aI9
aI9
aI9
aI9
aI9
aI9
aI9
aI9
aI9
aI9
aI9
aI9
aI9
aI9
aI9
aI9
aI9
aI9
aI9
aI9
aI9
aI9
aI9
aI9
aI9
aI9
aI9
aI9
aI9
aI9
aI9
aI9
aI9
aI9
aI9
aI9
aI9
aI9
aI9
aI9
aI9
aI9
aI9
aI9
aI9
aI9
aI9
aI9
aI9
aI9
aI9
aI9
aI9
aI9
aI9
aI9
aI9
aI9
aI9
aI9
aI9
aI9
aI9
aI9
aI9
aI9
aI9
aI9
aI9
aI9
aI9
aI9
aI9
aI9
aI9
aI9
aI9
aI9
aI9
aI9
aI9
aI9
aI9
aI9
aI9
aI9
aI9
aI9
aI9
aI9
aI9
aI9
aI9
aI9
aI9
aI9
aI9
aI9
aI9
aI9
aI9
aI9
aI9
aI9
aI9
aI9
aI9
aI9
aI9
aI9
aI9
aI9
aI9
aI9
aI9
aI9
aI9
aI9
aI9
aI9
aI9
aI9
aI9
aI9
aI9
aI9
aI9
aI9
aI9
aI9
aI9
aI9
aI9
aI9
aI9
aI9
aI9
aI9
aI9
aI9
aI9
aI9
aI9
aI9
aI9
aI9
aI9
aI9
aI9
aI9
aI9
aI9
aI9
aI9
aI9
aI9
aI9
aI9
aI9
aI9
aI9
aI9
aI9
aI9
aI9
aI9
aI9
aI9
aI9
aI9
aI9
aI9
aI9
aI9
aI9
aI9
aI9
aI9
aI9
aI9
aI9
aI9
aI9
aI9
aI9
aI9
aI9
aI9
aI9
aI9
aI9
aI9
aI9
aI9
aI9
aI9
aI9
aI9
aI9
aI9
aI9
aI9
aI9
aI9
aI9
aI9
aI9
aI9
aI9
aI9
aI9
aI9
aI9
aI9
aI9
aI9
aI9
aI9
aI9
aI9
aI9
aI9
aI9
aI9
aI9
aI9
aI9
aI9
aI9
aI9
aI9
aI9
aI9
aI9
aI9
aI9
aI9
aI9
aI9
aI9
aI9
aI9
aI9
aI9
aI9
aI9
aI9
aI9
aI9
aI9
aI9
aI9
aI9
aI9
aI9
aI9
aI9
aI9
aI9
aI9
aI9
aI9
aI9
aI9
aI9
aI9
aI9
aI9
aI9
aI9
aI9
aI9
aI9
aI9
aI9
aI9
aI9
aI9
aI9
aI9
aI9
aI9
aI9
aI9
aI9
aI9
aI9
aI9
aI9
aI9
aI9
aI9
aI9
aI9
aI9
aI9
aI9
aI9
aI9
aI9
aI9
aI9
aI9
aI9
aI9
aI9
aI9
aI9
aI9
aI9
aI9
aI9
aI9
aI9
aI9
aI9
aI9
aI9
aI9
aI9
aI9
aI9
aI9
aI9
aI9
aI9
aI9
aI9
aI9
aI9
aI9
aI9
aI9
aI9
asS'Aspect_y'
p9
(lp10
I0
aI0
aI0
aI1
aI1
aI0
aI0
aI0
aI0
aI0
aI0
aI0
aI1
aI-1
aI-1
aI1
aI1
aI-1
aI-1
aI-1
aI0
aI-1
aI0
aI0
aI0
aI0
aI-1
aI-1
aI1
aI-1
aI-1
aI0
aI0
aI1
aI1
aI0
aI0
aI0
aI0
aI0
aI1
aI0
aI0
aI0
aI0
aI0
aI0
aI0
aI1
aI1
aI1
aI1
aI1
aI-1
aI-1
aI0
aI0
aI0
aI0
aI-1
aI-1
aI-1
aI-1
aI-1
aI1
aI1
aI1
aI1
aI-1
aI-1
aI0
aI1
aI1
aI0
aI0
aI0
aI0
aI1
aI1
aI1
aI1
aI0
aI1
aI1
aI1
aI1
aI1
aI1
aI1
aI1
aI0
aI0
aI0
aI0
aI-1
aI-1
aI-1
aI-1
aI1
aI1
aI1
aI1
aI1
aI1
aI-1
aI-1
aI-1
aI0
aI0
aI0
aI0
aI0
aI1
aI1
aI1
aI0
aI0
aI0
aI0
aI0
aI1
aI1
aI1
aI1
aI1
aI1
aI1
aI1
aI0
aI0
aI0
aI0
aI-1
aI-1
aI-1
aI-1
aI-1
aI-1
aI-1
aI1
aI1
aI1
aI1
aI1
aI1
aI1
aI-1
aI-1
aI-1
aI-1
aI0
aI0
aI0
aI0
aI1
aI1
aI0
aI0
aI0
aI0
aI1
aI1
aI1
aI0
aI0
aI0
aI0
aI1
aI1
aI1
aI1
aI1
aI1
aI0
aI0
aI0
aI0
aI-1
aI0
aI0
aI-1
aI-1
aI-1
aI0
aI-1
aI-1
aI1
aI1
aI1
aI1
aI1
aI1
aI1
aI-1
aI0
aI0
aI-1
aI-1
aI-1
aI0
aI0
aI0
aI0
aI0
aI1
aI0
aI0
aI0
aI0
aI1
aI1
aI1
aI1
aI0
aI0
aI0
aI0
aI1
aI1
aI1
aI1
aI1
aI1
aI0
aI0
aI1
aI0
aI0
aI-1
aI-1
aI0
aI-1
aI-1
aI-1
aI1
aI1
aI1
aI0
aI1
aI1
aI1
aI1
aI-1
aI0
aI0
aI0
aI0
aI0
aI0
aI0
aI1
aI1
aI1
aI0
aI1
aI1
aI1
aI1
aI1
aI0
aI1
aI1
aI1
aI0
aI0
aI-1
aI0
aI0
aI-1
aI-1
aI1
aI1
aI1
aI1
aI1
aI1
aI1
aI1
aI1
aI1
aI0
aI0
aI0
aI0
aI0
aI0
aI1
aI0
aI0
aI0
aI1
aI1
aI1
aI1
aI1
aI1
aI1
aI1
aI1
aI1
aI1
aI1
aI1
aI1
aI0
aI0
aI1
aI1
aI1
aI-1
aI-1
aI0
aI-1
aI-1
aI-1
aI-1
aI-1
aI-1
aI-1
aI1
aI1
aI1
aI1
aI1
aI1
aI1
aI1
aI1
aI0
aI0
aI1
aI1
aI0
aI1
aI-1
aI1
aI1
aI1
aI1
aI1
aI1
aI1
aI1
aI1
aI1
aI1
aI1
aI1
aI1
aI1
aI0
aI0
aI1
aI0
aI0
aI-1
aI-1
aI0
aI1
aI1
aI1
aI0
aI-1
aI-1
aI-1
aI-1
aI-1
aI-1
aI-1
aI1
aI1
aI0
aI1
aI0
aI0
aI1
aI-1
aI-1
aI1
aI1
aI1
aI1
aI1
aI1
aI1
aI1
aI1
aI1
aI1
aI1
aI1
aI1
aI1
aI1
aI1
aI0
aI0
aI0
aI0
aI0
aI0
aI0
aI0
aI0
aI1
aI1
aI1
aI1
aI0
aI-1
aI-1
aI-1
aI-1
aI-1
aI-1
aI-1
aI1
aI1
aI0
aI0
aI1
aI0
aI1
aI1
aI-1
aI0
aI1
aI0
aI1
aI1
aI1
aI1
aI1
aI1
aI1
aI1
aI1
aI0
aI0
aI0
aI1
aI0
aI0
aI0
aI0
aI0
aI0
aI1
aI1
aI0
aI1
aI0
aI0
aI-1
aI-1
aI-1
aI-1
aI-1
aI-1
aI-1
aI0
aI0
aI0
aI0
aI0
aI0
aI1
aI1
aI0
aI0
aI0
aI1
aI-1
aI-1
aI0
aI1
aI1
aI0
aI0
aI0
aI0
aI0
aI1
aI1
aI1
aI1
aI1
aI1
aI1
aI0
aI0
aI0
aI0
aI0
aI1
aI1
aI0
aI-1
aI0
aI0
aI0
aI-1
aI-1
aI-1
aI-1
aI-1
aI0
aI0
aI0
aI0
aI1
aI1
aI0
aI1
aI1
aI1
aI1
aI0
aI0
aI0
aI0
aI0
aI0
aI0
aI0
aI0
aI1
aI1
aI1
aI1
aI-1
aI-1
aI-1
aI-1
aI-1
aI1
aI1
aI1
aI1
aI1
aI1
aI1
aI1
aI1
aI1
aI1
aI1
aI1
aI1
aI1
aI1
aI1
aI1
aI1
aI1
aI1
aI1
aI1
aI1
aI1
aI1
aI1
aI0
aI-1
aI-1
aI-1
aI-1
aI-1
aI-1
aI-1
aI-1
aI-1
aI-1
aI-1
aI-1
aI-1
aI-1
aI-1
aI-1
aI-1
aI-1
aI-1
aI-1
aI-1
aI-1
aI-1
aI-1
aI-1
aI-1
aI-1
aI-1
aI-1
aI0
aI0
aI0
aI-1
aI-1
aI-1
aI-1
aI-1
aI-1
aI-1
aI-1
aI-1
aI0
aI0
aI0
aI0
aI0
aI0
aI0
aI0
aI0
aI0
aI0
aI0
aI0
aI1
aI1
aI1
aI1
aI1
aI0
aI1
aI1
aI1
aI1
aI0
aI0
aI0
aI1
aI1
aI1
aI1
aI-1
aI-1
aI-1
aI-1
aI0
aI0
aI0
aI0
aI0
aI0
aI0
aI0
aI0
aI-1
aI-1
aI-1
aI-1
aI-1
aI-1
aI-1
aI-1
aI-1
aI0
aI0
aI0
aI0
aI0
aI0
aI0
aI0
aI-1
aI0
aI0
aI0
aI1
aI1
aI1
aI1
aI1
aI1
aI1
aI1
aI1
aI1
aI1
aI1
aI1
aI1
aI1
aI1
aI1
aI1
aI1
aI1
aI1
aI1
aI1
aI1
aI1
aI1
aI1
aI1
aI1
aI1
aI1
aI1
aI1
aI1
aI1
aI1
aI1
aI1
aI1
aI1
aI1
aI1
aI1
aI1
aI1
aI1
aI1
aI1
aI1
aI1
aI1
aI1
aI1
aI1
aI1
aI1
aI1
aI1
aI1
aI1
aI0
aI0
aI0
aI-1
aI-1
aI1
aI1
aI1
aI1
aI1
aI1
aI1
aI1
aI1
aI1
aI1
aI1
aI1
aI1
aI1
aI1
aI1
aI1
aI1
aI1
aI1
aI1
aI1
aI-1
aI-1
aI0
aI0
aI-1
aI-1
aI-1
aI-1
aI-1
aI0
aI0
aI0
aI0
aI0
aI0
aI-1
aI-1
aI-1
aI-1
aI-1
aI-1
aI-1
aI-1
aI0
aI0
aI0
aI0
aI0
aI0
aI0
aI0
aI-1
aI0
aI1
aI1
aI1
aI1
aI1
aI1
aI1
aI1
aI1
aI1
aI1
aI1
aI1
aI1
aI1
aI1
aI1
aI1
aI1
aI1
aI1
aI1
aI1
aI-1
aI-1
aI-1
aI-1
aI-1
aI-1
aI-1
aI-1
aI0
aI0
aI0
aI0
aI1
aI1
aI0
aI0
aI1
aI1
aI0
aI0
aI0
aI0
aI0
aI0
aI0
aI0
aI0
aI1
aI1
aI0
aI0
aI0
aI0
aI0
aI0
aI0
aI0
aI0
aI1
aI-1
aI-1
aI-1
aI-1
aI0
aI0
aI1
aI1
aI1
aI1
aI1
aI1
aI1
aI1
aI1
aI1
aI1
aI1
aI1
aI1
aI1
aI1
aI1
aI1
aI1
aI1
aI1
aI1
aI1
aI1
aI1
aI1
aI1
aI1
aI-1
aI-1
aI-1
aI-1
aI-1
aI-1
aI-1
aI-1
aI-1
aI-1
aI-1
aI-1
aI-1
aI-1
aI-1
aI-1
aI-1
aI-1
aI-1
aI-1
aI-1
aI-1
aI-1
aI-1
aI-1
aI-1
aI0
aI-1
aI-1
aI-1
aI-1
aI-1
aI-1
aI-1
aI-1
aI-1
aI-1
aI-1
aI-1
aI0
aI0
aI0
aI0
aI0
aI0
aI0
aI0
aI0
aI0
aI0
aI1
aI1
aI1
aI1
aI1
aI1
aI1
aI0
aI0
aI0
aI0
aI0
aI1
aI0
aI0
aI0
aI-1
aI-1
aI-1
aI-1
aI0
aI0
aI0
aI0
aI0
aI0
aI0
aI0
aI-1
aI-1
aI-1
aI-1
aI-1
aI-1
aI-1
aI-1
aI-1
aI1
aI0
aI0
aI0
aI0
aI0
aI0
aI0
aI0
aI0
aI-1
aI0
aI1
aI1
aI0
aI0
aI0
aI1
aI1
aI1
aI1
aI1
aI1
aI1
aI1
aI1
aI1
aI1
aI0
aI0
aI1
aI1
aI0
aI0
aI1
aI1
aI1
aI0
aI0
aI0
aI0
aI1
aI1
aI1
aI1
aI1
aI1
aI1
aI1
aI1
aI1
aI1
aI1
aI-1
aI0
aI0
aI0
aI0
aI1
aI1
aI0
aI0
aI0
aI1
aI1
aI0
aI0
aI0
aI0
aI0
aI1
aI1
aI0
aI0
aI0
aI-1
aI-1
aI-1
aI-1
aI-1
aI-1
aI1
aI1
aI1
aI0
aI0
aI-1
aI-1
aI-1
aI-1
aI-1
aI-1
aI-1
aI1
aI1
aI1
aI1
aI1
aI1
aI1
aI1
aI1
aI1
aI1
aI1
aI0
aI-1
aI-1
aI-1
aI-1
aI-1
aI-1
aI-1
aI-1
aI-1
aI-1
aI-1
aI-1
aI-1
aI-1
aI-1
aI1
aI1
aI1
aI1
aI1
aI1
aI1
aI-1
aI-1
aI-1
aI-1
aI-1
aI-1
aI0
aI0
aI0
aI0
aI0
aI-1
aI-1
aI-1
aI-1
aI0
aI0
aI0
aI0
aI0
aI-1
aI-1
aI-1
aI-1
aI-1
aI-1
aI-1
aI-1
aI-1
aI0
aI0
aI0
aI0
aI0
aI1
aI1
aI0
aI0
aI-1
aI-1
aI-1
aI0
aI1
aI0
aI0
aI0
aI0
aI0
aI1
aI0
aI0
aI0
aI0
aI1
aI1
aI1
aI1
aI1
aI0
aI0
aI1
aI1
aI1
aI1
aI1
aI1
aI1
aI1
aI1
aI1
aI1
aI1
aI1
aI1
aI1
aI1
aI1
aI1
aI1
aI1
aI1
aI1
aI1
aI1
aI1
aI1
aI1
aI1
aI1
aI1
aI1
aI1
aI1
aI1
aI1
aI1
aI1
aI1
aI1
aI1
aI1
aI1
aI1
aI1
aI1
aI1
aI1
aI1
aI1
aI1
aI1
aI1
aI1
aI1
aI1
aI1
aI1
aI1
aI0
aI0
aI0
aI0
aI-1
aI0
aI0
aI0
aI-1
aI-1
aI-1
aI-1
aI-1
aI-1
aI1
aI1
aI1
aI1
aI1
aI1
aI1
aI1
aI1
aI1
aI1
aI1
aI-1
aI-1
aI0
aI0
aI0
aI0
aI0
aI0
aI0
aI0
aI0
aI0
aI0
aI0
aI0
aI0
aI0
aI0
aI0
aI0
aI0
aI0
aI0
aI-1
aI-1
aI0
aI0
aI-1
aI-1
aI-1
aI-1
aI1
aI1
aI0
aI0
aI-1
aI-1
aI-1
aI-1
aI-1
aI-1
aI-1
aI1
aI0
aI1
aI1
aI1
aI1
aI1
aI1
aI1
aI1
aI1
aI1
aI1
aI1
aI1
aI1
aI-1
aI-1
aI-1
aI-1
aI-1
aI-1
aI-1
aI0
aI-1
aI-1
aI-1
aI0
aI0
aI1
aI1
aI1
aI1
aI1
aI1
aI0
aI-1
aI0
aI0
aI0
aI0
aI-1
aI-1
aI-1
aI-1
aI-1
aI-1
aI0
aI0
aI-1
aI-1
aI-1
aI-1
aI-1
aI-1
aI-1
aI0
aI0
aI0
aI0
aI-1
aI-1
aI-1
aI-1
aI-1
aI-1
aI-1
aI-1
aI-1
aI-1
aI0
aI0
aI0
aI0
aI0
aI1
aI0
aI0
aI-1
aI-1
aI-1
aI-1
aI0
aI0
aI0
aI0
aI-1
aI-1
aI-1
aI-1
aI0
aI0
aI0
aI1
aI1
aI0
aI1
aI1
aI1
aI1
aI1
aI1
aI1
aI1
aI1
aI1
aI1
aI1
aI1
aI1
aI1
aI1
aI1
aI1
aI1
aI1
aI1
aI1
aI1
aI1
aI1
aI1
aI1
aI1
aI1
aI1
aI1
aI1
aI1
aI1
aI1
aI1
aI1
aI1
aI1
aI1
aI1
aI1
aI1
aI1
aI1
aI1
aI1
aI1
aI1
aI1
aI1
aI1
aI1
aI1
aI1
aI1
aI1
aI1
aI1
aI1
aI1
aI0
aI0
aI0
aI0
aI0
aI-1
aI-1
aI0
aI0
aI-1
aI0
aI-1
aI0
aI0
aI-1
aI-1
aI-1
aI-1
aI1
aI1
aI1
aI1
aI1
aI1
aI1
aI1
aI1
aI1
aI1
aI1
aI1
aI-1
aI-1
aI-1
aI-1
aI-1
aI0
aI0
aI0
aI0
aI0
aI0
aI0
aI0
aI0
aI0
aI0
aI0
aI0
aI0
aI0
aI0
aI0
aI1
aI1
aI0
aI0
aI-1
aI1
aI1
aI0
aI1
aI1
aI1
aI1
aI1
aI1
aI1
aI1
aI1
aI0
aI0
aI0
aI0
aI-1
aI-1
aI-1
aI-1
aI-1
aI-1
aI-1
aI-1
aI-1
aI-1
aI0
aI1
aI1
aI1
aI1
aI1
aI1
aI1
aI1
aI1
aI0
aI0
aI1
aI1
aI1
aI0
aI1
aI1
aI0
aI0
aI0
aI0
aI1
aI0
aI-1
aI-1
aI-1
aI-1
aI-1
aI1
aI1
aI1
aI1
aI1
aI1
aI1
aI0
aI-1
aI1
aI1
aI1
aI1
aI1
aI1
aI1
aI1
aI1
aI1
aI0
aI0
aI0
aI0
aI0
aI0
aI0
aI0
aI-1
aI0
aI0
aI0
aI0
aI0
aI0
aI0
aI0
aI0
aI0
aI0
aI0
aI0
aI0
aI0
aI0
aI0
aI0
aI0
aI0
aI0
aI1
aI1
aI1
aI1
aI1
aI1
aI1
aI1
aI-1
aI-1
aI-1
aI-1
aI-1
aI-1
aI-1
aI-1
aI-1
aI-1
aI-1
aI-1
aI-1
aI-1
aI-1
aI-1
aI-1
aI-1
aI1
aI1
aI1
aI1
aI1
aI1
aI1
aI1
aI1
aI1
aI1
aI1
aI1
aI1
aI1
aI1
aI1
aI1
aI1
aI1
aI0
aI-1
aI-1
aI0
aI0
aI0
aI0
aI0
aI0
aI0
aI-1
aI-1
aI-1
aI-1
aI-1
aI-1
aI-1
aI0
aI0
aI0
aI0
aI0
aI0
aI0
aI0
aI0
aI-1
aI0
aI0
aI0
aI1
aI1
aI1
aI1
aI1
aI1
aI1
aI-1
aI0
aI0
aI-1
aI1
aI1
aI1
aI1
aI1
aI1
aI1
aI1
aI1
aI1
aI-1
aI-1
aI-1
aI0
aI0
aI-1
aI-1
aI-1
aI-1
aI-1
aI-1
aI-1
aI-1
aI0
aI0
aI0
aI1
aI1
aI1
aI1
aI1
aI1
aI1
aI1
aI0
aI0
aI0
aI0
aI0
aI1
aI1
aI1
aI0
aI0
aI0
aI0
aI-1
aI-1
aI-1
aI-1
aI1
aI1
aI1
aI1
aI1
aI-1
aI-1
aI-1
aI-1
aI0
aI1
aI1
aI1
aI1
aI0
aI0
aI1
aI1
aI1
aI0
aI0
aI0
aI0
aI0
aI0
aI0
aI0
aI0
aI0
aI0
aI0
aI0
aI0
aI0
aI0
aI0
aI0
aI0
aI0
aI0
aI0
aI0
aI0
aI0
aI-1
aI0
aI0
aI0
aI0
aI0
aI0
aI0
aI0
aI0
aI0
aI0
aI0
aI0
aI1
aI1
aI1
aI1
aI-1
aI-1
aI-1
aI-1
aI-1
aI-1
aI-1
aI-1
aI-1
aI-1
aI-1
aI-1
aI-1
aI-1
aI-1
aI-1
aI1
aI0
aI1
aI1
aI0
aI1
aI1
aI1
aI1
aI1
aI1
aI1
aI1
aI1
aI1
aI1
aI1
aI1
aI1
aI1
aI1
aI1
aI0
aI0
aI0
aI0
aI0
aI0
aI0
aI-1
aI-1
aI-1
aI-1
aI-1
aI0
aI0
aI-1
aI0
aI0
aI0
aI0
aI0
aI0
aI0
aI0
aI1
aI0
aI0
aI1
aI1
aI1
aI1
aI1
aI1
aI1
aI1
aI1
aI1
aI1
aI0
aI0
aI-1
aI-1
aI1
aI-1
aI-1
aI-1
aI-1
aI-1
aI1
aI1
aI0
aI0
aI0
aI-1
aI-1
aI-1
aI-1
aI-1
aI-1
aI-1
aI1
aI1
aI1
aI1
aI1
aI1
aI1
aI0
aI1
aI1
aI1
aI1
aI1
aI0
aI0
aI1
aI1
aI0
aI0
aI-1
aI-1
aI-1
aI-1
aI1
aI1
aI1
aI-1
aI-1
aI-1
aI-1
aI-1
aI1
aI1
aI1
aI0
aI0
aI1
aI0
aI0
aI1
aI1
aI1
aI0
aI0
aI0
aI0
aI0
aI0
aI0
aI0
aI0
aI0
aI-1
aI-1
aI0
aI0
aI0
aI0
aI0
aI0
aI0
aI0
aI0
aI0
aI0
aI-1
aI0
aI0
aI0
aI0
aI0
aI0
aI0
aI0
aI0
aI0
aI0
aI0
aI0
aI1
aI1
aI1
aI1
aI1
aI-1
aI-1
aI-1
aI-1
aI-1
aI-1
aI-1
aI-1
aI-1
aI-1
aI-1
aI-1
aI-1
aI-1
aI-1
aI0
aI1
aI1
aI1
aI0
aI0
aI0
aI0
aI0
aI-1
aI-1
aI-1
aI-1
aI-1
aI-1
aI-1
aI-1
aI-1
aI-1
aI-1
aI-1
aI-1
aI-1
aI-1
aI-1
aI-1
aI-1
aI-1
aI-1
aI1
aI1
aI1
aI1
aI1
aI1
aI0
aI0
aI-1
aI-1
aI-1
aI-1
aI-1
aI-1
aI-1
aI-1
aI-1
aI-1
aI-1
aI-1
aI-1
aI-1
aI-1
aI-1
aI-1
aI-1
aI-1
aI-1
aI-1
aI-1
aI-1
aI-1
aI-1
aI-1
aI-1
aI-1
aI-1
aI-1
aI-1
aI-1
aI-1
aI-1
aI-1
aI-1
aI-1
aI-1
aI-1
aI-1
aI-1
aI1
aI1
aI0
aI0
aI0
aI0
aI0
aI0
aI0
aI0
aI0
aI0
aI0
aI0
aI0
aI0
aI0
aI-1
aI1
aI1
aI1
aI1
aI1
aI1
aI1
aI1
aI1
aI1
aI1
aI1
aI1
aI1
aI1
aI1
aI1
aI1
aI1
aI1
aI1
aI1
aI1
aI1
aI1
aI1
aI1
aI1
aI1
aI1
aI1
aI1
aI1
aI1
aI1
aI1
aI1
aI1
aI1
aI1
aI1
aI1
aI1
aI1
aI1
aI1
aI1
aI1
aI1
aI1
aI1
aI1
aI1
aI1
aI1
aI1
aI1
aI1
aI1
aI1
aI1
aI1
aI1
aI1
aI1
aI1
aI1
aI1
aI1
aI1
aI1
aI1
aI1
aI1
aI1
aI1
aI1
aI1
aI1
aI1
aI1
aI1
aI1
aI1
aI1
aI1
aI1
aI1
aI1
aI1
aI1
aI0
aI1
aI1
aI1
aI1
aI1
aI1
aI1
aI1
aI1
aI1
aI1
aI1
aI1
aI1
aI1
aI1
aI1
aI0
aI0
aI0
aI0
aI0
aI0
aI0
aI0
aI0
aI0
aI1
aI1
aI1
aI1
aI1
aI0
aI0
aI0
aI0
aI0
aI-1
aI-1
aI-1
aI-1
aI-1
aI-1
aI-1
aI-1
aI-1
aI-1
aI-1
aI-1
aI-1
aI-1
aI-1
aI-1
aI-1
aI-1
aI1
aI1
aI1
aI0
aI0
aI-1
aI-1
aI-1
aI-1
aI-1
aI-1
aI-1
aI-1
aI-1
aI-1
aI-1
aI-1
aI-1
aI-1
aI-1
aI-1
aI-1
aI-1
aI-1
aI-1
aI-1
aI-1
aI-1
aI-1
aI-1
aI-1
aI-1
aI-1
aI-1
aI-1
aI-1
aI-1
aI-1
aI0
aI0
aI0
aI0
aI0
aI0
aI0
aI0
aI0
aI0
aI0
aI0
aI0
aI0
aI0
aI0
aI0
aI-1
aI-1
aI-1
aI-1
aI-1
aI-1
aI-1
aI1
aI1
aI1
aI1
aI1
aI1
aI1
aI1
aI1
aI1
aI1
aI1
aI1
aI1
aI1
aI1
aI1
aI1
aI1
aI1
aI1
aI1
aI1
aI1
aI1
aI1
aI1
aI1
aI1
aI1
aI1
aI1
aI1
aI1
aI1
aI1
aI1
aI1
aI1
aI1
aI1
aI1
aI1
aI1
aI1
aI1
aI1
aI1
aI1
aI1
aI1
aI1
aI1
aI1
aI1
aI1
aI1
aI1
aI1
aI1
aI1
aI1
aI1
aI1
aI1
aI1
aI1
aI1
aI1
aI0
aI0
aI1
aI1
aI1
aI1
aI1
aI1
aI1
aI1
aI1
aI1
aI1
aI1
aI1
aI1
aI1
aI1
aI1
aI1
aI1
aI1
aI1
aI1
aI1
aI1
aI1
aI1
aI1
aI1
aI1
aI1
aI1
aI1
aI1
aI1
aI1
aI1
aI1
aI1
aI1
aI0
aI0
aI0
aI0
aI0
aI0
aI0
aI0
aI0
aI1
aI1
aI1
aI1
aI-1
aI-1
aI0
aI0
aI-1
aI-1
aI-1
aI-1
aI-1
aI-1
aI-1
aI-1
aI-1
aI-1
aI-1
aI-1
aI-1
aI-1
aI-1
aI-1
aI-1
aI-1
aI0
aI1
aI1
aI1
aI1
aI1
aI0
aI-1
aI0
aI0
aI-1
aI-1
aI-1
aI-1
aI-1
aI0
aI0
aI1
aI-1
aI-1
aI-1
aI-1
aI-1
aI-1
aI-1
aI-1
aI-1
aI-1
aI-1
aI-1
aI-1
aI-1
aI-1
aI-1
aI-1
aI0
aI-1
aI-1
aI0
aI0
aI0
aI0
aI0
aI0
aI0
aI0
aI0
aI0
aI0
aI0
aI0
aI0
aI-1
aI-1
aI-1
aI-1
aI-1
aI-1
aI0
aI0
aI-1
aI-1
aI-1
aI-1
aI-1
aI-1
aI-1
aI-1
aI-1
aI-1
aI-1
aI-1
aI-1
aI-1
aI-1
aI0
aI0
aI0
aI1
aI0
aI0
aI0
aI0
aI0
aI0
aI-1
aI-1
aI-1
aI-1
aI0
aI0
aI0
aI0
aI0
aI0
aI0
aI0
aI0
aI0
aI0
aI-1
aI-1
aI-1
aI-1
aI-1
aI1
aI1
aI1
aI1
aI1
aI1
aI1
aI1
aI1
aI1
aI1
aI1
aI1
aI1
aI1
aI1
aI1
aI1
aI1
aI1
aI0
aI0
aI0
aI0
aI0
aI0
aI0
aI0
aI0
aI1
aI1
aI1
aI0
aI0
aI0
aI1
aI-1
aI-1
aI-1
aI-1
aI-1
aI-1
aI-1
aI-1
aI-1
aI-1
aI-1
aI-1
aI-1
aI-1
aI-1
aI-1
aI1
aI1
aI1
aI1
aI1
aI1
aI1
aI1
aI1
aI1
aI1
aI1
aI1
aI1
aI1
aI1
aI0
aI0
aI0
aI1
aI1
aI1
aI1
aI1
aI0
aI1
aI1
aI1
aI1
aI1
aI1
aI1
aI1
aI1
aI-1
aI0
aI0
aI1
aI1
aI1
aI1
aI1
aI1
aI1
aI1
aI1
aI1
aI1
aI1
aI1
aI1
aI1
aI1
aI1
aI1
aI1
aI1
aI1
aI1
aI1
aI1
aI1
aI1
aI1
aI1
aI1
aI1
aI1
aI1
aI1
aI1
aI1
aI1
aI1
aI1
aI1
aI1
aI0
aI0
aI0
aI0
aI0
aI0
aI0
aI0
aI0
aI0
aI0
aI-1
aI-1
aI-1
aI0
aI-1
aI-1
aI0
aI1
aI1
aI1
aI1
aI1
aI1
aI1
aI0
aI1
aI1
aI1
aI0
aI0
aI0
aI0
aI0
aI0
aI0
aI0
aI0
aI0
aI1
aI1
aI1
aI1
aI1
aI1
aI1
aI1
aI1
aI1
aI1
aI1
aI1
aI1
aI1
aI1
aI1
aI1
aI1
aI1
aI1
aI1
aI1
aI1
aI1
aI1
aI1
aI1
aI1
aI1
aI1
aI0
aI-1
aI-1
aI-1
aI-1
aI-1
aI-1
aI-1
aI-1
aI-1
aI0
aI-1
aI-1
aI-1
aI-1
aI-1
aI-1
aI0
aI0
aI0
aI0
aI0
aI0
aI1
aI0
aI-1
aI-1
aI1
aI1
aI1
aI1
aI1
aI0
aI1
aI1
aI1
aI1
aI1
aI1
aI0
aI1
aI1
aI1
aI1
aI1
aI1
aI1
aI1
aI0
aI0
aI0
aI0
aI0
aI0
aI0
aI-1
aI-1
aI0
aI0
aI0
aI0
aI-1
aI-1
aI-1
aI-1
aI-1
aI-1
aI-1
aI-1
aI0
aI-1
aI-1
aI-1
aI-1
aI-1
aI-1
aI0
aI0
aI0
aI1
aI1
aI1
aI1
aI1
aI1
aI1
aI1
aI1
aI1
aI1
aI1
aI0
aI0
aI0
aI0
aI0
aI0
aI-1
aI-1
aI-1
aI-1
aI-1
aI-1
aI-1
aI-1
aI-1
aI-1
aI-1
aI-1
aI-1
aI-1
aI-1
aI-1
aI-1
aI1
aI1
aI0
aI0
aI0
aI-1
aI0
aI0
aI0
aI0
aI0
aI1
aI1
aI1
aI1
aI1
aI1
aI1
aI1
aI1
aI1
aI1
aI1
aI1
aI-1
aI-1
aI-1
aI-1
aI-1
aI-1
aI-1
aI-1
aI-1
aI-1
aI-1
aI-1
aI-1
aI-1
aI-1
aI0
aI0
aI0
aI0
aI0
aI0
aI0
aI0
aI0
aI1
aI1
aI1
aI1
aI1
aI1
aI1
aI1
aI-1
aI-1
aI-1
aI-1
aI0
aI0
aI-1
aI-1
aI-1
aI0
aI0
aI0
aI0
aI-1
aI-1
aI-1
aI-1
aI-1
aI-1
aI-1
aI1
aI1
aI1
aI1
aI1
aI-1
aI-1
aI0
aI0
aI0
aI0
aI0
aI0
aI0
aI-1
aI-1
aI-1
aI-1
aI-1
aI-1
aI-1
aI-1
aI-1
aI-1
aI-1
aI-1
aI-1
aI-1
aI-1
aI0
aI-1
aI-1
aI0
aI0
aI0
aI0
aI0
aI0
aI0
aI0
aI0
aI0
aI0
aI0
aI0
aI0
aI0
aI0
aI0
aI0
aI0
aI0
aI0
aI0
aI0
aI0
aI-1
aI-1
aI0
aI1
aI1
aI1
aI1
aI1
aI1
aI1
aI1
aI1
aI1
aI1
aI1
aI1
aI1
aI1
aI-1
aI-1
aI-1
aI-1
aI0
aI0
aI0
aI0
aI0
aI0
aI0
aI0
aI-1
aI-1
aI-1
aI-1
aI-1
aI-1
aI-1
aI-1
aI-1
aI-1
aI-1
aI-1
aI-1
aI-1
aI-1
aI-1
aI-1
aI-1
aI-1
aI-1
aI-1
aI-1
aI-1
aI-1
aI-1
aI-1
aI-1
aI-1
aI-1
aI-1
aI-1
aI-1
aI-1
aI0
aI0
aI1
aI1
aI1
aI1
aI1
aI1
aI1
aI0
aI-1
aI-1
aI0
aI-1
aI-1
aI-1
aI-1
aI-1
aI-1
aI0
aI1
aI1
aI1
aI1
aI1
aI1
aI1
aI1
aI1
aI1
aI1
aI1
aI1
aI0
aI1
aI1
aI1
aI1
aI1
aI1
aI1
aI1
aI1
aI1
aI1
aI1
aI1
aI1
aI1
aI1
aI1
aI1
aI1
aI1
aI1
aI1
aI1
aI1
aI1
aI1
aI0
aI0
aI0
aI0
aI1
aI1
aI1
aI1
aI1
aI-1
aI-1
aI-1
aI-1
aI-1
aI-1
aI-1
aI-1
aI-1
aI0
aI0
aI-1
aI-1
aI-1
aI-1
aI-1
aI-1
aI-1
aI0
aI-1
aI-1
aI-1
aI-1
aI-1
aI-1
aI-1
aI-1
aI-1
aI-1
aI-1
aI-1
aI-1
aI-1
aI-1
aI-1
aI1
aI1
aI1
aI1
aI0
aI1
aI1
aI0
aI0
aI0
aI0
aI1
aI0
aI0
aI0
aI0
aI0
aI0
aI-1
aI-1
aI-1
aI-1
aI-1
aI-1
aI-1
aI-1
aI-1
aI-1
aI-1
aI-1
aI-1
aI-1
aI-1
aI-1
aI-1
aI-1
aI-1
aI-1
aI-1
aI-1
aI-1
aI-1
aI-1
aI-1
aI-1
aI-1
aI-1
aI-1
aI-1
aI-1
aI-1
aI-1
aI-1
aI-1
aI-1
aI-1
aI-1
aI-1
aI-1
aI-1
aI0
aI-1
aI-1
aI-1
aI-1
aI-1
aI-1
aI-1
aI0
aI0
aI0
aI0
aI1
aI1
aI1
aI1
aI1
aI1
aI1
aI1
aI1
aI1
aI1
aI1
aI1
aI1
aI0
aI-1
aI-1
aI-1
aI-1
aI-1
aI-1
aI-1
aI-1
aI-1
aI-1
aI0
aI0
aI-1
aI-1
aI-1
aI-1
aI-1
aI-1
aI-1
aI-1
aI-1
aI-1
aI-1
aI-1
aI-1
aI-1
aI-1
aI-1
aI-1
aI-1
aI-1
aI-1
aI-1
aI-1
aI-1
aI-1
aI-1
aI-1
aI-1
aI-1
aI-1
aI-1
aI-1
aI-1
aI-1
aI0
aI0
aI0
aI0
aI1
aI1
aI1
aI1
aI0
aI0
aI0
aI0
aI-1
aI-1
aI-1
aI-1
aI-1
aI-1
aI-1
aI-1
aI-1
aI-1
aI-1
aI-1
aI-1
aI-1
aI-1
aI-1
aI-1
aI-1
aI-1
aI-1
aI-1
aI-1
aI0
aI-1
aI-1
aI-1
aI-1
aI-1
aI-1
aI0
aI0
aI0
aI0
aI0
aI0
aI-1
aI-1
aI-1
aI-1
aI-1
aI-1
aI-1
aI-1
aI-1
aI1
aI1
aI1
aI1
aI1
aI1
aI1
aI1
aI0
aI-1
aI-1
aI-1
aI-1
aI-1
aI-1
aI-1
aI-1
aI-1
aI-1
aI-1
aI-1
aI-1
aI-1
aI1
aI1
aI1
aI1
aI1
aI1
aI1
aI1
aI1
aI1
aI1
aI1
aI1
aI1
aI1
aI1
aI1
aI1
aI1
aI1
aI1
aI1
aI1
aI-1
aI-1
aI-1
aI0
aI0
aI1
aI1
aI1
aI1
aI1
aI1
aI1
aI1
aI1
aI1
aI1
aI1
aI1
aI1
aI1
aI1
aI1
aI1
aI1
aI1
aI-1
aI-1
aI-1
aI-1
aI-1
aI-1
aI0
aI0
aI0
aI0
aI-1
aI-1
aI-1
aI-1
aI-1
aI-1
aI-1
aI-1
aI-1
aI-1
aI-1
aI-1
aI-1
aI-1
aI-1
aI-1
aI-1
aI-1
aI-1
aI-1
aI-1
aI-1
aI-1
aI-1
aI-1
aI-1
aI-1
aI-1
aI-1
aI-1
aI-1
aI-1
aI-1
aI0
aI0
aI0
aI0
aI0
aI1
aI1
aI1
aI1
aI1
aI1
aI1
aI1
aI1
aI1
aI1
aI0
aI-1
aI-1
aI0
aI0
aI1
aI1
aI1
aI1
aI1
aI1
aI1
aI1
aI1
aI1
aI1
aI1
aI1
aI1
aI1
aI1
aI1
aI0
aI1
aI1
aI1
aI0
aI0
aI1
aI0
aI1
aI0
aI1
aI1
aI1
aI1
aI1
aI1
aI-1
aI-1
aI1
aI1
aI1
aI1
aI0
aI0
aI-1
aI-1
aI-1
aI-1
aI1
aI1
aI1
aI1
aI1
aI1
aI1
aI1
aI1
aI1
aI1
aI0
aI0
aI0
aI0
aI-1
aI-1
aI-1
aI-1
aI0
aI0
aI0
aI-1
aI0
aI1
aI0
aI-1
aI0
aI1
aI1
aI1
aI1
aI1
aI1
aI1
aI1
aI1
aI1
aI1
aI1
aI1
aI1
aI1
aI1
aI1
aI1
aI1
aI0
aI0
aI1
aI1
aI1
aI1
aI1
aI1
aI1
aI1
aI1
aI1
aI-1
aI0
aI1
aI1
aI1
aI1
aI1
aI1
aI0
aI1
aI1
aI1
aI1
aI1
aI0
aI1
aI1
aI1
aI1
aI1
aI1
aI-1
aI1
aI1
aI1
aI1
aI1
aI1
aI1
aI1
aI-1
aI1
aI1
aI1
aI1
aI1
aI1
aI1
aI1
aI1
aI0
aI1
aI1
aI1
aI1
aI1
aI1
aI1
aI1
aI1
aI-1
aI0
aI0
aI1
aI1
aI1
aI0
aI0
aI0
aI0
aI-1
aI0
aI0
aI1
aI1
aI-1
aI-1
aI0
aI0
aI1
aI-1
aI-1
aI-1
aI0
aI-1
aI-1
aI-1
aI-1
aI-1
aI-1
aI-1
aI-1
aI-1
aI-1
aI-1
aI-1
aI0
aI0
aI1
aI1
aI1
aI0
aI-1
aI-1
aI-1
aI-1
aI0
aI0
aI-1
aI-1
aI-1
aI-1
aI-1
aI1
aI1
aI1
aI0
aI-1
aI-1
aI-1
aI-1
aI-1
aI-1
aI-1
aI-1
aI1
aI1
aI0
aI0
aI-1
aI-1
aI-1
aI-1
aI-1
aI0
aI0
aI0
aI0
aI-1
aI-1
aI-1
aI-1
aI-1
aI-1
aI-1
aI0
aI0
aI0
aI0
aI0
aI-1
aI-1
aI-1
aI-1
aI-1
aI-1
aI-1
aI-1
aI-1
aI-1
aI-1
aI-1
aI-1
aI-1
aI-1
aI-1
aI-1
aI0
aI0
aI0
aI0
aI0
aI0
aI0
aI0
aI-1
aI0
aI-1
aI0
aI-1
aI-1
aI1
aI1
aI1
aI1
aI1
aI1
aI1
aI1
aI1
aI1
aI1
aI-1
aI-1
aI-1
aI-1
aI-1
aI-1
aI-1
aI0
aI0
aI0
aI0
aI-1
aI-1
aI-1
aI1
aI1
aI1
aI-1
aI0
aI0
aI0
aI0
aI0
aI0
aI0
aI0
aI0
aI0
aI0
aI0
aI0
aI0
aI0
aI0
aI0
aI0
aI0
aI0
aI0
aI0
aI0
aI0
aI0
aI0
aI1
aI1
aI0
aI0
aI1
aI0
aI0
aI0
aI0
aI-1
aI-1
aI-1
aI-1
aI0
aI0
aI-1
aI-1
aI0
aI0
aI0
aI0
aI0
aI0
aI0
aI0
aI0
aI0
aI0
aI0
aI0
aI0
aI1
aI1
aI1
aI0
aI1
aI1
aI1
aI0
aI0
aI1
aI-1
aI1
aI1
aI1
aI1
aI1
aI1
aI1
aI1
aI1
aI1
aI1
aI1
aI1
aI1
aI1
aI1
aI1
aI1
aI1
aI0
aI1
aI1
aI1
aI1
aI1
aI1
aI1
aI1
aI1
aI1
aI1
aI1
aI1
aI1
aI1
aI1
aI1
aI1
aI1
aI1
aI1
aI1
aI1
aI1
aI1
aI1
aI1
aI1
aI1
aI1
aI1
aI1
aI1
aI1
aI1
aI1
aI1
aI1
aI1
aI1
aI1
aI1
aI1
aI1
aI1
aI1
aI1
aI1
aI1
aI1
aI1
aI1
aI1
aI1
aI1
aI1
aI1
aI1
aI1
aI1
aI0
aI0
aI0
aI0
aI0
aI0
aI0
aI1
aI1
aI1
aI1
aI1
aI1
aI1
aI1
aI1
aI1
aI1
aI1
aI1
aI1
aI1
aI1
aI1
aI1
aI1
aI1
aI1
aI1
aI1
aI0
aI0
aI0
aI0
aI0
aI-1
aI-1
aI-1
aI-1
aI1
aI1
aI1
aI1
aI1
aI1
aI1
aI1
aI1
aI1
aI1
aI1
aI1
aI1
aI1
aI0
aI0
aI-1
aI-1
aI-1
aI-1
aI-1
aI-1
aI0
aI1
aI0
aI0
aI-1
aI-1
aI0
aI0
aI1
aI0
aI-1
aI0
aI0
aI-1
aI0
aI-1
aI-1
aI0
aI0
aI0
aI0
aI0
aI0
aI0
aI0
aI0
aI0
aI0
aI0
aI0
aI0
aI0
aI0
aI0
aI0
aI0
aI0
aI0
aI0
aI0
aI0
aI0
aI0
aI0
aI0
aI-1
aI-1
aI-1
aI0
aI0
aI-1
aI-1
aI0
aI0
aI0
aI0
aI0
aI0
aI0
aI0
aI0
aI0
aI0
aI-1
aI-1
aI0
aI0
aI0
aI-1
aI0
aI0
aI-1
aI0
aI-1
aI-1
aI0
aI-1
aI-1
aI0
aI0
aI-1
aI0
aI0
aI-1
aI1
aI1
aI0
aI0
aI0
aI0
aI0
aI1
aI0
aI0
aI0
aI-1
aI-1
aI1
aI1
aI-1
aI-1
aI-1
aI-1
aI-1
aI1
aI0
aI0
aI0
aI0
aI-1
aI-1
aI-1
aI1
aI-1
aI-1
aI-1
aI-1
aI-1
aI0
aI-1
aI-1
aI-1
aI1
aI0
aI1
aI1
aI0
aI0
aI0
aI-1
aI1
aI0
aI1
aI1
aI0
aI0
aI1
aI-1
aI-1
aI-1
aI0
aI-1
aI-1
aI-1
aI-1
aI-1
aI-1
aI0
aI-1
aI-1
aI-1
aI1
aI1
aI1
aI1
aI1
aI-1
aI1
aI1
aI1
aI1
aI0
aI0
aI-1
aI1
aI0
aI-1
aI-1
aI-1
aI-1
aI-1
aI0
aI0
aI0
aI-1
aI-1
aI-1
aI-1
aI-1
aI-1
aI-1
aI-1
aI0
aI0
aI-1
aI-1
aI0
aI1
aI1
aI-1
aI-1
aI-1
aI-1
aI-1
aI-1
aI-1
aI-1
aI-1
aI0
aI0
aI0
aI-1
aI-1
aI-1
aI0
aI0
aI0
aI0
aI1
aI-1
aI-1
aI0
aI0
aI1
aI1
aI0
aI0
aI0
aI-1
aI-1
aI-1
aI-1
aI-1
aI0
aI0
aI0
aI-1
aI-1
aI-1
aI-1
aI-1
aI-1
aI-1
aI1
aI1
aI0
aI-1
aI-1
aI-1
aI-1
aI-1
aI1
aI1
aI-1
aI-1
aI-1
aI-1
aI-1
aI-1
aI-1
aI0
aI0
aI-1
aI-1
aI0
aI1
aI-1
aI-1
aI-1
aI0
aI-1
aI-1
aI1
aI-1
aI-1
aI-1
aI-1
aI-1
aI-1
aI-1
aI0
aI-1
aI-1
aI-1
aI-1
aI-1
aI0
aI-1
aI-1
aI-1
aI-1
aI-1
aI-1
aI-1
aI-1
aI-1
aI-1
aI-1
aI-1
aI0
aI0
aI-1
aI-1
aI-1
aI-1
aI-1
aI-1
aI-1
aI-1
aI-1
aI-1
aI0
aI0
aI0
aI-1
aI-1
aI-1
aI1
aI1
aI0
aI0
aI1
aI-1
aI0
aI-1
aI-1
aI-1
aI-1
aI-1
aI1
aI1
aI1
aI-1
aI0
aI1
aI-1
aI0
aI0
aI-1
aI1
aI0
aI0
aI1
aI1
aI1
aI1
aI1
aI0
aI0
aI0
aI1
aI-1
aI-1
aI-1
aI-1
aI0
aI0
aI0
aI0
aI0
aI0
aI1
aI1
aI1
aI1
aI0
aI1
aI0
aI0
aI1
aI0
aI0
aI0
aI0
aI0
aI-1
aI-1
aI-1
aI-1
aI1
aI1
aI0
aI0
aI0
aI0
aI0
aI-1
aI1
aI0
aI1
aI1
aI1
aI1
aI1
aI1
aI0
aI0
aI1
aI1
aI1
aI1
aI1
aI1
aI0
aI0
aI1
aI1
aI1
aI1
aI1
aI1
aI1
aI1
aI1
aI0
aI1
aI1
aI1
aI1
aI1
aI1
aI1
aI1
aI1
aI1
aI1
aI0
aI-1
aI1
aI1
aI1
aI1
aI1
aI1
aI1
aI1
aI1
aI1
aI1
aI0
aI0
aI0
aI0
aI1
aI1
aI1
aI1
aI1
aI1
aI1
aI1
aI0
aI0
aI-1
aI-1
aI-1
aI0
aI0
aI0
aI0
aI1
aI0
aI0
aI0
aI0
aI1
aI1
aI1
aI-1
aI0
aI0
aI0
aI0
aI1
aI0
aI0
aI-1
aI-1
aI-1
aI0
aI0
aI0
aI0
aI0
aI0
aI0
aI-1
aI0
aI1
aI0
aI-1
aI-1
aI-1
aI-1
aI-1
aI0
aI0
aI0
aI0
aI0
aI-1
aI-1
aI-1
aI-1
aI-1
aI-1
asS'Aspect_x'
p11
(lp12
I1
aI1
aI-1
aI-1
aI-1
aI-1
aI-1
aI-1
aI1
aI1
aI1
aI1
aI1
aI-1
aI-1
aI-1
aI-1
aI1
aI1
aI1
aI1
aI1
aI1
aI1
aI1
aI1
aI1
aI0
aI-1
aI1
aI1
aI-1
aI-1
aI0
aI0
aI1
aI1
aI-1
aI-1
aI-1
aI-1
aI1
aI1
aI1
aI1
aI0
aI0
aI-1
aI-1
aI-1
aI-1
aI0
aI0
aI1
aI1
aI1
aI1
aI1
aI1
aI0
aI-1
aI0
aI1
aI1
aI1
aI1
aI-1
aI-1
aI1
aI1
aI1
aI-1
aI0
aI1
aI1
aI1
aI-1
aI-1
aI-1
aI-1
aI-1
aI-1
aI-1
aI-1
aI-1
aI0
aI0
aI0
aI0
aI0
aI1
aI1
aI1
aI1
aI0
aI-1
aI1
aI1
aI1
aI1
aI1
aI1
aI1
aI-1
aI1
aI1
aI1
aI1
aI1
aI1
aI-1
aI-1
aI-1
aI-1
aI-1
aI-1
aI-1
aI-1
aI-1
aI-1
aI-1
aI-1
aI-1
aI-1
aI-1
aI0
aI0
aI0
aI1
aI1
aI1
aI1
aI1
aI1
aI0
aI-1
aI-1
aI1
aI1
aI1
aI1
aI1
aI1
aI1
aI1
aI-1
aI1
aI1
aI1
aI1
aI1
aI1
aI1
aI1
aI-1
aI-1
aI-1
aI1
aI1
aI1
aI-1
aI-1
aI-1
aI-1
aI-1
aI-1
aI-1
aI-1
aI-1
aI-1
aI0
aI0
aI0
aI1
aI1
aI1
aI1
aI1
aI1
aI1
aI1
aI0
aI-1
aI-1
aI0
aI1
aI1
aI1
aI1
aI1
aI1
aI1
aI-1
aI1
aI1
aI1
aI1
aI1
aI0
aI1
aI1
aI1
aI1
aI1
aI-1
aI-1
aI1
aI1
aI1
aI-1
aI-1
aI-1
aI-1
aI-1
aI-1
aI-1
aI-1
aI-1
aI-1
aI-1
aI-1
aI-1
aI0
aI1
aI1
aI1
aI1
aI1
aI1
aI-1
aI-1
aI-1
aI0
aI0
aI1
aI1
aI1
aI-1
aI1
aI1
aI1
aI1
aI1
aI1
aI1
aI1
aI1
aI0
aI1
aI1
aI-1
aI-1
aI-1
aI-1
aI-1
aI-1
aI-1
aI-1
aI-1
aI1
aI1
aI1
aI-1
aI1
aI1
aI1
aI-1
aI-1
aI0
aI0
aI1
aI1
aI1
aI1
aI1
aI1
aI1
aI1
aI1
aI1
aI1
aI1
aI1
aI1
aI1
aI1
aI1
aI1
aI1
aI1
aI-1
aI-1
aI-1
aI-1
aI-1
aI-1
aI-1
aI-1
aI-1
aI-1
aI-1
aI0
aI0
aI1
aI1
aI1
aI1
aI1
aI1
aI1
aI-1
aI-1
aI1
aI0
aI1
aI1
aI1
aI-1
aI0
aI1
aI1
aI1
aI1
aI1
aI1
aI1
aI1
aI1
aI1
aI1
aI1
aI1
aI1
aI1
aI-1
aI-1
aI-1
aI-1
aI-1
aI-1
aI-1
aI-1
aI-1
aI-1
aI-1
aI-1
aI0
aI0
aI0
aI1
aI1
aI1
aI1
aI1
aI1
aI-1
aI-1
aI-1
aI-1
aI-1
aI-1
aI-1
aI1
aI1
aI0
aI1
aI1
aI0
aI0
aI1
aI1
aI1
aI1
aI1
aI1
aI0
aI1
aI-1
aI-1
aI-1
aI-1
aI-1
aI-1
aI-1
aI-1
aI-1
aI-1
aI-1
aI-1
aI-1
aI0
aI-1
aI0
aI1
aI1
aI1
aI1
aI1
aI1
aI1
aI-1
aI-1
aI-1
aI-1
aI-1
aI-1
aI-1
aI-1
aI1
aI1
aI1
aI1
aI1
aI1
aI0
aI1
aI1
aI1
aI1
aI1
aI1
aI1
aI1
aI0
aI1
aI1
aI-1
aI-1
aI-1
aI-1
aI-1
aI-1
aI-1
aI-1
aI-1
aI0
aI1
aI1
aI1
aI1
aI1
aI1
aI1
aI-1
aI-1
aI-1
aI-1
aI-1
aI-1
aI-1
aI-1
aI-1
aI-1
aI1
aI1
aI1
aI1
aI1
aI0
aI0
aI1
aI1
aI1
aI1
aI1
aI1
aI1
aI1
aI1
aI1
aI1
aI0
aI1
aI1
aI-1
aI-1
aI-1
aI-1
aI-1
aI-1
aI-1
aI-1
aI-1
aI-1
aI-1
aI-1
aI-1
aI-1
aI0
aI1
aI1
aI1
aI1
aI1
aI1
aI1
aI1
aI-1
aI-1
aI-1
aI-1
aI-1
aI-1
aI-1
aI-1
aI-1
aI-1
aI-1
aI-1
aI-1
aI-1
aI-1
aI-1
aI-1
aI-1
aI-1
aI-1
aI-1
aI-1
aI-1
aI-1
aI1
aI1
aI1
aI1
aI1
aI1
aI1
aI1
aI1
aI-1
aI-1
aI-1
aI-1
aI0
aI-1
aI-1
aI-1
aI-1
aI-1
aI-1
aI-1
aI-1
aI-1
aI-1
aI-1
aI-1
aI-1
aI-1
aI-1
aI-1
aI-1
aI-1
aI-1
aI0
aI0
aI0
aI-1
aI-1
aI-1
aI-1
aI-1
aI-1
aI-1
aI0
aI0
aI0
aI0
aI-1
aI-1
aI0
aI0
aI0
aI-1
aI-1
aI-1
aI1
aI1
aI0
aI0
aI1
aI1
aI1
aI1
aI1
aI1
aI0
aI0
aI0
aI1
aI1
aI1
aI1
aI1
aI1
aI1
aI1
aI1
aI1
aI1
aI1
aI1
aI1
aI1
aI1
aI1
aI1
aI1
aI1
aI1
aI1
aI1
aI1
aI1
aI1
aI1
aI1
aI-1
aI-1
aI-1
aI-1
aI-1
aI-1
aI1
aI1
aI1
aI1
aI1
aI1
aI1
aI1
aI1
aI1
aI1
aI-1
aI-1
aI-1
aI-1
aI-1
aI-1
aI-1
aI-1
aI-1
aI-1
aI-1
aI-1
aI-1
aI-1
aI-1
aI-1
aI-1
aI-1
aI-1
aI-1
aI-1
aI0
aI1
aI1
aI1
aI1
aI1
aI1
aI1
aI1
aI0
aI-1
aI-1
aI-1
aI-1
aI-1
aI-1
aI-1
aI-1
aI-1
aI-1
aI-1
aI-1
aI-1
aI-1
aI-1
aI-1
aI0
aI0
aI-1
aI-1
aI-1
aI-1
aI-1
aI-1
aI-1
aI-1
aI0
aI1
aI1
aI0
aI0
aI0
aI0
aI0
aI0
aI0
aI0
aI-1
aI-1
aI-1
aI-1
aI0
aI0
aI0
aI0
aI0
aI0
aI0
aI0
aI-1
aI0
aI0
aI0
aI0
aI0
aI-1
aI-1
aI-1
aI-1
aI-1
aI-1
aI-1
aI-1
aI-1
aI-1
aI1
aI0
aI1
aI-1
aI-1
aI-1
aI-1
aI-1
aI0
aI1
aI1
aI1
aI1
aI1
aI1
aI0
aI0
aI0
aI0
aI0
aI1
aI1
aI0
aI1
aI1
aI1
aI0
aI1
aI1
aI1
aI-1
aI0
aI0
aI1
aI1
aI-1
aI-1
aI-1
aI-1
aI-1
aI-1
aI-1
aI1
aI1
aI1
aI1
aI1
aI1
aI1
aI1
aI1
aI1
aI1
aI1
aI1
aI1
aI1
aI-1
aI-1
aI-1
aI0
aI0
aI0
aI1
aI1
aI0
aI0
aI0
aI0
aI0
aI0
aI0
aI0
aI-1
aI-1
aI0
aI0
aI0
aI1
aI1
aI0
aI1
aI-1
aI-1
aI-1
aI-1
aI-1
aI-1
aI-1
aI-1
aI-1
aI-1
aI-1
aI-1
aI-1
aI-1
aI-1
aI-1
aI-1
aI-1
aI-1
aI-1
aI-1
aI-1
aI-1
aI-1
aI-1
aI-1
aI-1
aI0
aI1
aI1
aI1
aI1
aI1
aI1
aI1
aI1
aI1
aI1
aI1
aI-1
aI-1
aI0
aI0
aI-1
aI-1
aI-1
aI-1
aI-1
aI-1
aI-1
aI-1
aI-1
aI-1
aI-1
aI-1
aI-1
aI-1
aI-1
aI-1
aI-1
aI-1
aI-1
aI0
aI0
aI0
aI0
aI-1
aI-1
aI-1
aI-1
aI-1
aI-1
aI1
aI0
aI-1
aI-1
aI0
aI0
aI0
aI-1
aI-1
aI-1
aI1
aI1
aI0
aI0
aI1
aI1
aI1
aI1
aI1
aI1
aI0
aI0
aI0
aI0
aI1
aI1
aI1
aI1
aI1
aI1
aI1
aI1
aI1
aI1
aI1
aI1
aI1
aI1
aI1
aI1
aI1
aI0
aI1
aI1
aI1
aI1
aI1
aI1
aI1
aI1
aI1
aI-1
aI-1
aI-1
aI-1
aI-1
aI1
aI1
aI1
aI1
aI1
aI1
aI1
aI1
aI1
aI1
aI1
aI0
aI-1
aI-1
aI-1
aI-1
aI-1
aI-1
aI-1
aI-1
aI-1
aI-1
aI-1
aI-1
aI-1
aI-1
aI0
aI-1
aI-1
aI-1
aI-1
aI-1
aI1
aI1
aI1
aI1
aI1
aI1
aI1
aI1
aI1
aI1
aI1
aI1
aI-1
aI-1
aI-1
aI-1
aI-1
aI-1
aI-1
aI0
aI0
aI0
aI-1
aI-1
aI-1
aI0
aI-1
aI-1
aI1
aI1
aI1
aI1
aI1
aI1
aI1
aI1
aI1
aI-1
aI1
aI1
aI1
aI-1
aI-1
aI-1
aI-1
aI-1
aI-1
aI-1
aI-1
aI-1
aI-1
aI-1
aI-1
aI1
aI1
aI0
aI1
aI1
aI1
aI1
aI1
aI0
aI1
aI0
aI1
aI1
aI-1
aI-1
aI-1
aI-1
aI1
aI1
aI1
aI0
aI-1
aI1
aI1
aI1
aI0
aI1
aI1
aI0
aI-1
aI-1
aI-1
aI-1
aI-1
aI-1
aI0
aI0
aI0
aI0
aI1
aI-1
aI-1
aI-1
aI-1
aI-1
aI-1
aI0
aI1
aI0
aI0
aI1
aI1
aI1
aI-1
aI-1
aI0
aI1
aI1
aI0
aI-1
aI-1
aI-1
aI0
aI-1
aI-1
aI-1
aI-1
aI-1
aI1
aI1
aI1
aI1
aI1
aI1
aI1
aI-1
aI-1
aI-1
aI-1
aI1
aI1
aI1
aI1
aI0
aI0
aI1
aI1
aI1
aI1
aI1
aI1
aI1
aI1
aI-1
aI-1
aI-1
aI0
aI1
aI1
aI1
aI1
aI1
aI0
aI0
aI1
aI0
aI0
aI1
aI1
aI1
aI1
aI1
aI1
aI1
aI1
aI1
aI1
aI1
aI0
aI1
aI1
aI1
aI1
aI-1
aI-1
aI-1
aI-1
aI-1
aI-1
aI-1
aI-1
aI0
aI-1
aI-1
aI-1
aI0
aI-1
aI-1
aI-1
aI-1
aI0
aI0
aI0
aI0
aI0
aI0
aI0
aI0
aI0
aI0
aI0
aI0
aI0
aI-1
aI0
aI-1
aI-1
aI-1
aI0
aI0
aI0
aI0
aI0
aI0
aI0
aI0
aI0
aI0
aI0
aI0
aI-1
aI-1
aI-1
aI-1
aI-1
aI0
aI0
aI0
aI0
aI0
aI0
aI1
aI1
aI1
aI1
aI1
aI1
aI1
aI1
aI1
aI1
aI1
aI1
aI1
aI1
aI1
aI1
aI1
aI1
aI1
aI1
aI1
aI1
aI1
aI1
aI1
aI1
aI-1
aI-1
aI-1
aI-1
aI-1
aI-1
aI-1
aI-1
aI-1
aI-1
aI-1
aI-1
aI1
aI1
aI1
aI1
aI1
aI1
aI1
aI1
aI0
aI0
aI0
aI0
aI0
aI0
aI-1
aI0
aI0
aI-1
aI-1
aI-1
aI-1
aI-1
aI1
aI1
aI1
aI-1
aI1
aI1
aI1
aI1
aI1
aI-1
aI-1
aI-1
aI-1
aI-1
aI-1
aI-1
aI-1
aI0
aI0
aI0
aI-1
aI-1
aI-1
aI-1
aI-1
aI-1
aI-1
aI-1
aI0
aI0
aI0
aI0
aI1
aI1
aI1
aI1
aI0
aI0
aI1
aI1
aI0
aI0
aI-1
aI-1
aI-1
aI-1
aI-1
aI-1
aI-1
aI1
aI1
aI1
aI1
aI1
aI1
aI1
aI-1
aI-1
aI1
aI1
aI1
aI1
aI1
aI1
aI1
aI1
aI1
aI1
aI1
aI1
aI1
aI1
aI1
aI1
aI1
aI1
aI1
aI-1
aI-1
aI-1
aI0
aI0
aI1
aI0
aI1
aI0
aI0
aI0
aI0
aI0
aI1
aI1
aI1
aI1
aI1
aI1
aI1
aI0
aI1
aI1
aI1
aI1
aI1
aI1
aI1
aI1
aI1
aI1
aI1
aI-1
aI-1
aI-1
aI-1
aI-1
aI-1
aI-1
aI-1
aI0
aI0
aI0
aI-1
aI0
aI0
aI0
aI0
aI-1
aI-1
aI-1
aI-1
aI-1
aI0
aI0
aI0
aI0
aI0
aI0
aI0
aI0
aI0
aI0
aI0
aI0
aI0
aI0
aI0
aI0
aI-1
aI-1
aI0
aI0
aI0
aI0
aI0
aI0
aI0
aI-1
aI0
aI0
aI0
aI0
aI0
aI0
aI0
aI1
aI1
aI0
aI1
aI1
aI1
aI1
aI1
aI1
aI1
aI1
aI1
aI1
aI1
aI1
aI1
aI1
aI1
aI1
aI1
aI1
aI1
aI1
aI1
aI1
aI1
aI0
aI1
aI1
aI1
aI1
aI1
aI-1
aI-1
aI-1
aI-1
aI-1
aI-1
aI-1
aI-1
aI-1
aI-1
aI-1
aI-1
aI-1
aI1
aI1
aI1
aI1
aI1
aI1
aI1
aI1
aI1
aI1
aI1
aI1
aI1
aI1
aI0
aI0
aI0
aI0
aI0
aI0
aI-1
aI1
aI1
aI1
aI-1
aI-1
aI-1
aI1
aI-1
aI-1
aI1
aI0
aI0
aI0
aI0
aI0
aI0
aI0
aI0
aI1
aI1
aI1
aI1
aI0
aI-1
aI-1
aI-1
aI-1
aI-1
aI0
aI1
aI1
aI1
aI-1
aI-1
aI-1
aI-1
aI-1
aI-1
aI-1
aI-1
aI-1
aI-1
aI-1
aI-1
aI-1
aI-1
aI-1
aI1
aI-1
aI-1
aI1
aI1
aI1
aI1
aI1
aI0
aI0
aI1
aI1
aI1
aI1
aI-1
aI-1
aI-1
aI-1
aI-1
aI-1
aI-1
aI1
aI1
aI-1
aI-1
aI-1
aI-1
aI-1
aI-1
aI-1
aI-1
aI-1
aI-1
aI-1
aI-1
aI-1
aI-1
aI-1
aI-1
aI-1
aI-1
aI-1
aI1
aI1
aI1
aI1
aI1
aI1
aI1
aI1
aI1
aI-1
aI-1
aI-1
aI-1
aI-1
aI-1
aI-1
aI-1
aI-1
aI-1
aI-1
aI-1
aI-1
aI-1
aI-1
aI-1
aI1
aI1
aI1
aI1
aI-1
aI-1
aI0
aI-1
aI-1
aI0
aI0
aI0
aI0
aI0
aI0
aI-1
aI0
aI0
aI0
aI1
aI0
aI-1
aI0
aI0
aI1
aI0
aI0
aI1
aI1
aI0
aI0
aI0
aI1
aI1
aI1
aI1
aI1
aI1
aI1
aI1
aI1
aI1
aI1
aI0
aI-1
aI1
aI1
aI1
aI0
aI-1
aI-1
aI-1
aI-1
aI-1
aI-1
aI-1
aI-1
aI-1
aI-1
aI-1
aI-1
aI-1
aI-1
aI-1
aI-1
aI-1
aI-1
aI-1
aI-1
aI-1
aI0
aI-1
aI0
aI0
aI0
aI0
aI0
aI0
aI0
aI-1
aI1
aI-1
aI-1
aI-1
aI0
aI0
aI0
aI0
aI0
aI0
aI0
aI1
aI0
aI-1
aI-1
aI-1
aI1
aI1
aI-1
aI-1
aI-1
aI-1
aI-1
aI1
aI1
aI1
aI-1
aI-1
aI-1
aI-1
aI-1
aI-1
aI-1
aI-1
aI-1
aI-1
aI-1
aI-1
aI-1
aI-1
aI-1
aI1
aI-1
aI-1
aI-1
aI1
aI1
aI1
aI1
aI1
aI1
aI1
aI1
aI-1
aI-1
aI-1
aI-1
aI-1
aI1
aI1
aI1
aI1
aI-1
aI-1
aI-1
aI-1
aI-1
aI-1
aI-1
aI-1
aI-1
aI-1
aI-1
aI-1
aI-1
aI-1
aI-1
aI-1
aI-1
aI-1
aI-1
aI-1
aI-1
aI-1
aI-1
aI-1
aI1
aI1
aI1
aI1
aI1
aI1
aI1
aI1
aI1
aI1
aI1
aI-1
aI-1
aI-1
aI-1
aI-1
aI-1
aI-1
aI-1
aI-1
aI-1
aI-1
aI-1
aI-1
aI-1
aI-1
aI1
aI1
aI1
aI-1
aI0
aI0
aI0
aI0
aI0
aI0
aI0
aI0
aI0
aI0
aI-1
aI0
aI0
aI0
aI-1
aI0
aI0
aI0
aI0
aI0
aI1
aI1
aI0
aI0
aI0
aI1
aI1
aI1
aI1
aI1
aI1
aI1
aI1
aI1
aI1
aI1
aI1
aI1
aI1
aI1
aI1
aI-1
aI-1
aI-1
aI-1
aI-1
aI-1
aI-1
aI-1
aI-1
aI-1
aI-1
aI-1
aI-1
aI-1
aI-1
aI-1
aI-1
aI-1
aI-1
aI-1
aI-1
aI-1
aI0
aI0
aI-1
aI-1
aI-1
aI-1
aI1
aI0
aI1
aI-1
aI-1
aI1
aI1
aI-1
aI-1
aI0
aI-1
aI-1
aI-1
aI-1
aI-1
aI-1
aI-1
aI-1
aI-1
aI1
aI-1
aI-1
aI0
aI1
aI1
aI1
aI0
aI-1
aI-1
aI-1
aI-1
aI-1
aI-1
aI-1
aI-1
aI-1
aI-1
aI-1
aI-1
aI-1
aI-1
aI-1
aI-1
aI-1
aI1
aI1
aI1
aI1
aI1
aI1
aI-1
aI-1
aI-1
aI1
aI1
aI1
aI1
aI-1
aI-1
aI-1
aI-1
aI-1
aI-1
aI-1
aI-1
aI-1
aI-1
aI-1
aI-1
aI-1
aI-1
aI-1
aI-1
aI-1
aI-1
aI-1
aI-1
aI-1
aI-1
aI-1
aI-1
aI1
aI1
aI1
aI1
aI1
aI0
aI1
aI1
aI1
aI1
aI1
aI-1
aI-1
aI-1
aI-1
aI-1
aI-1
aI-1
aI-1
aI-1
aI-1
aI-1
aI-1
aI-1
aI-1
aI1
aI1
aI1
aI1
aI1
aI0
aI0
aI0
aI0
aI0
aI0
aI0
aI0
aI0
aI-1
aI0
aI0
aI-1
aI-1
aI0
aI-1
aI-1
aI-1
aI-1
aI-1
aI-1
aI-1
aI-1
aI-1
aI-1
aI-1
aI-1
aI-1
aI-1
aI-1
aI-1
aI-1
aI0
aI0
aI0
aI0
aI0
aI0
aI0
aI0
aI0
aI1
aI1
aI1
aI1
aI0
aI0
aI0
aI0
aI1
aI1
aI1
aI-1
aI-1
aI-1
aI-1
aI-1
aI-1
aI0
aI-1
aI-1
aI-1
aI-1
aI-1
aI-1
aI-1
aI-1
aI0
aI0
aI0
aI0
aI0
aI0
aI0
aI0
aI0
aI0
aI1
aI1
aI1
aI1
aI1
aI1
aI1
aI1
aI1
aI0
aI0
aI0
aI0
aI0
aI1
aI1
aI1
aI1
aI1
aI1
aI1
aI0
aI1
aI1
aI1
aI1
aI1
aI1
aI1
aI1
aI1
aI1
aI1
aI1
aI-1
aI-1
aI-1
aI-1
aI-1
aI0
aI0
aI0
aI0
aI0
aI0
aI0
aI0
aI0
aI0
aI0
aI0
aI0
aI0
aI0
aI0
aI0
aI0
aI0
aI0
aI0
aI0
aI0
aI0
aI0
aI0
aI0
aI0
aI0
aI0
aI0
aI0
aI0
aI0
aI0
aI0
aI0
aI0
aI0
aI0
aI0
aI0
aI0
aI0
aI0
aI0
aI1
aI0
aI0
aI0
aI0
aI0
aI0
aI0
aI0
aI0
aI0
aI0
aI0
aI1
aI1
aI1
aI1
aI1
aI1
aI1
aI1
aI1
aI1
aI1
aI1
aI1
aI0
aI0
aI0
aI0
aI0
aI0
aI0
aI0
aI1
aI0
aI0
aI0
aI0
aI0
aI0
aI1
aI0
aI0
aI0
aI0
aI0
aI0
aI0
aI0
aI0
aI0
aI0
aI0
aI0
aI0
aI0
aI0
aI-1
aI-1
aI-1
aI-1
aI-1
aI-1
aI-1
aI-1
aI-1
aI-1
aI-1
aI0
aI0
aI-1
aI-1
aI-1
aI-1
aI-1
aI-1
aI-1
aI-1
aI0
aI0
aI-1
aI-1
aI0
aI0
aI0
aI0
aI0
aI0
aI0
aI0
aI0
aI0
aI0
aI0
aI-1
aI-1
aI0
aI-1
aI-1
aI-1
aI-1
aI-1
aI0
aI-1
aI-1
aI-1
aI-1
aI0
aI0
aI0
aI0
aI0
aI0
aI0
aI-1
aI-1
aI-1
aI-1
aI1
aI1
aI1
aI1
aI1
aI1
aI1
aI1
aI0
aI0
aI0
aI0
aI0
aI0
aI0
aI1
aI1
aI1
aI1
aI1
aI1
aI1
aI1
aI1
aI0
aI1
aI1
aI1
aI1
aI1
aI1
aI1
aI1
aI1
aI1
aI1
aI1
aI1
aI1
aI-1
aI-1
aI-1
aI-1
aI-1
aI-1
aI0
aI0
aI0
aI0
aI1
aI0
aI0
aI0
aI0
aI0
aI0
aI0
aI0
aI0
aI0
aI0
aI0
aI0
aI0
aI0
aI0
aI0
aI0
aI0
aI0
aI0
aI0
aI0
aI0
aI0
aI0
aI0
aI0
aI0
aI0
aI0
aI0
aI0
aI0
aI0
aI0
aI0
aI0
aI0
aI0
aI0
aI0
aI0
aI0
aI0
aI0
aI0
aI0
aI0
aI0
aI0
aI0
aI0
aI1
aI1
aI1
aI1
aI1
aI1
aI1
aI1
aI1
aI1
aI1
aI1
aI1
aI0
aI0
aI-1
aI0
aI0
aI0
aI0
aI0
aI0
aI0
aI0
aI0
aI0
aI0
aI0
aI1
aI1
aI0
aI0
aI0
aI0
aI0
aI0
aI0
aI0
aI0
aI0
aI0
aI0
aI0
aI-1
aI-1
aI-1
aI-1
aI-1
aI-1
aI-1
aI-1
aI-1
aI-1
aI-1
aI-1
aI0
aI0
aI-1
aI-1
aI-1
aI-1
aI-1
aI-1
aI-1
aI0
aI0
aI0
aI0
aI0
aI0
aI0
aI0
aI0
aI0
aI0
aI0
aI-1
aI0
aI0
aI0
aI-1
aI-1
aI0
aI0
aI0
aI0
aI-1
aI-1
aI0
aI-1
aI-1
aI0
aI0
aI0
aI0
aI-1
aI-1
aI-1
aI-1
aI1
aI1
aI1
aI1
aI1
aI1
aI1
aI1
aI0
aI0
aI0
aI0
aI0
aI0
aI0
aI0
aI1
aI1
aI1
aI1
aI1
aI1
aI1
aI1
aI1
aI1
aI1
aI0
aI1
aI1
aI1
aI1
aI-1
aI-1
aI-1
aI-1
aI-1
aI0
aI0
aI0
aI-1
aI-1
aI-1
aI-1
aI-1
aI-1
aI-1
aI0
aI1
aI1
aI1
aI1
aI1
aI1
aI1
aI1
aI1
aI-1
aI-1
aI-1
aI-1
aI-1
aI-1
aI-1
aI-1
aI-1
aI-1
aI-1
aI-1
aI-1
aI-1
aI-1
aI-1
aI-1
aI-1
aI-1
aI-1
aI-1
aI-1
aI-1
aI-1
aI-1
aI-1
aI-1
aI-1
aI-1
aI-1
aI1
aI1
aI1
aI1
aI1
aI1
aI1
aI1
aI0
aI0
aI0
aI0
aI0
aI0
aI-1
aI-1
aI-1
aI-1
aI-1
aI1
aI1
aI1
aI1
aI1
aI1
aI1
aI1
aI1
aI1
aI1
aI1
aI1
aI1
aI1
aI1
aI-1
aI-1
aI0
aI0
aI0
aI0
aI-1
aI-1
aI0
aI0
aI0
aI0
aI0
aI0
aI0
aI1
aI1
aI1
aI0
aI-1
aI-1
aI-1
aI0
aI-1
aI-1
aI-1
aI-1
aI-1
aI0
aI0
aI0
aI0
aI0
aI1
aI1
aI0
aI-1
aI-1
aI1
aI1
aI1
aI1
aI1
aI1
aI1
aI1
aI1
aI1
aI1
aI1
aI1
aI1
aI1
aI1
aI-1
aI0
aI0
aI0
aI0
aI0
aI0
aI0
aI0
aI1
aI1
aI0
aI0
aI0
aI0
aI1
aI1
aI1
aI1
aI1
aI1
aI1
aI1
aI1
aI0
aI0
aI0
aI1
aI0
aI1
aI1
aI1
aI1
aI1
aI1
aI1
aI1
aI1
aI1
aI1
aI1
aI1
aI1
aI1
aI1
aI1
aI1
aI1
aI1
aI1
aI1
aI1
aI1
aI1
aI-1
aI0
aI-1
aI-1
aI-1
aI-1
aI-1
aI-1
aI-1
aI-1
aI-1
aI-1
aI-1
aI-1
aI-1
aI-1
aI-1
aI-1
aI-1
aI-1
aI-1
aI-1
aI-1
aI-1
aI-1
aI-1
aI-1
aI0
aI-1
aI0
aI0
aI1
aI1
aI1
aI0
aI0
aI0
aI-1
aI-1
aI-1
aI-1
aI-1
aI-1
aI-1
aI-1
aI-1
aI-1
aI-1
aI-1
aI0
aI0
aI0
aI0
aI0
aI0
aI-1
aI-1
aI-1
aI-1
aI-1
aI-1
aI-1
aI0
aI1
aI1
aI1
aI1
aI1
aI1
aI0
aI0
aI1
aI1
aI1
aI1
aI1
aI1
aI1
aI1
aI1
aI1
aI0
aI1
aI1
aI0
aI1
aI1
aI1
aI1
aI-1
aI1
aI1
aI1
aI0
aI0
aI0
aI0
aI0
aI0
aI-1
aI-1
aI0
aI0
aI-1
aI-1
aI-1
aI-1
aI-1
aI-1
aI-1
aI-1
aI-1
aI-1
aI-1
aI-1
aI-1
aI-1
aI-1
aI-1
aI-1
aI0
aI0
aI-1
aI-1
aI-1
aI-1
aI-1
aI-1
aI-1
aI-1
aI-1
aI-1
aI-1
aI-1
aI-1
aI-1
aI-1
aI-1
aI0
aI-1
aI0
aI1
aI1
aI1
aI1
aI1
aI1
aI1
aI1
aI1
aI1
aI1
aI1
aI1
aI0
aI0
aI1
aI1
aI1
aI1
aI1
aI1
aI1
aI1
aI1
aI1
aI1
aI1
aI1
aI1
aI-1
aI-1
aI-1
aI-1
aI-1
aI0
aI1
aI1
aI1
aI1
aI1
aI1
aI1
aI1
aI1
aI1
aI1
aI1
aI1
aI1
aI1
aI1
aI1
aI1
aI0
aI0
aI-1
aI-1
aI-1
aI-1
aI-1
aI0
aI0
aI0
aI0
aI0
aI-1
aI-1
aI-1
aI1
aI1
aI1
aI1
aI1
aI1
aI1
aI1
aI1
aI1
aI1
aI1
aI1
aI0
aI1
aI1
aI1
aI1
aI1
aI1
aI1
aI1
aI1
aI1
aI1
aI1
aI1
aI1
aI1
aI1
aI1
aI1
aI1
aI1
aI1
aI1
aI0
aI0
aI0
aI0
aI0
aI0
aI0
aI-1
aI-1
aI-1
aI-1
aI-1
aI-1
aI-1
aI-1
aI-1
aI-1
aI-1
aI-1
aI-1
aI-1
aI-1
aI-1
aI0
aI1
aI1
aI0
aI0
aI1
aI-1
aI-1
aI-1
aI-1
aI-1
aI-1
aI-1
aI-1
aI-1
aI-1
aI-1
aI-1
aI-1
aI-1
aI-1
aI-1
aI-1
aI-1
aI-1
aI-1
aI-1
aI-1
aI-1
aI-1
aI-1
aI-1
aI-1
aI-1
aI-1
aI-1
aI1
aI1
aI-1
aI0
aI0
aI0
aI0
aI0
aI0
aI0
aI0
aI0
aI0
aI0
aI0
aI0
aI0
aI-1
aI-1
aI-1
aI-1
aI-1
aI-1
aI-1
aI-1
aI-1
aI-1
aI-1
aI-1
aI-1
aI-1
aI-1
aI-1
aI-1
aI-1
aI-1
aI-1
aI-1
aI-1
aI-1
aI0
aI0
aI0
aI0
aI0
aI0
aI0
aI0
aI-1
aI0
aI0
aI0
aI0
aI0
aI0
aI0
aI0
aI0
aI0
aI0
aI-1
aI-1
aI-1
aI-1
aI-1
aI-1
aI-1
aI-1
aI-1
aI-1
aI-1
aI-1
aI-1
aI-1
aI-1
aI-1
aI0
aI-1
aI-1
aI-1
aI-1
aI-1
aI0
aI1
aI1
aI1
aI1
aI1
aI1
aI1
aI1
aI1
aI1
aI1
aI1
aI1
aI0
aI0
aI0
aI0
aI0
aI0
aI0
aI0
aI0
aI0
aI0
aI0
aI0
aI0
aI1
aI1
aI1
aI1
aI1
aI1
aI1
aI1
aI1
aI1
aI1
aI1
aI1
aI1
aI1
aI1
aI1
aI1
aI1
aI-1
aI-1
aI-1
aI0
aI0
aI0
aI0
aI0
aI-1
aI-1
aI-1
aI-1
aI-1
aI-1
aI-1
aI0
aI-1
aI-1
aI-1
aI-1
aI-1
aI-1
aI0
aI0
aI0
aI1
aI1
aI1
aI1
aI1
aI0
aI0
aI1
aI1
aI1
aI1
aI1
aI-1
aI-1
aI-1
aI-1
aI-1
aI-1
aI-1
aI-1
aI-1
aI-1
aI-1
aI-1
aI-1
aI-1
aI-1
aI-1
aI-1
aI-1
aI-1
aI-1
aI0
aI0
aI-1
aI-1
aI-1
aI0
aI0
aI0
aI0
aI0
aI0
aI0
aI0
aI0
aI0
aI1
aI1
aI1
aI1
aI1
aI1
aI1
aI1
aI1
aI1
aI1
aI1
aI1
aI1
aI1
aI1
aI1
aI1
aI1
aI1
aI1
aI1
aI1
aI1
aI1
aI1
aI1
aI1
aI1
aI-1
aI-1
aI-1
aI-1
aI-1
aI-1
aI-1
aI-1
aI0
aI0
aI0
aI0
aI0
aI0
aI0
aI0
aI-1
aI-1
aI-1
aI-1
aI1
aI1
aI1
aI1
aI1
aI0
aI0
aI1
aI1
aI1
aI1
aI1
aI1
aI1
aI1
aI0
aI1
aI-1
aI-1
aI-1
aI-1
aI-1
aI-1
aI-1
aI-1
aI-1
aI-1
aI-1
aI-1
aI-1
aI-1
aI-1
aI-1
aI-1
aI-1
aI-1
aI-1
aI-1
aI-1
aI0
aI0
aI0
aI0
aI1
aI1
aI1
aI1
aI1
aI1
aI1
aI1
aI1
aI1
aI1
aI1
aI1
aI1
aI1
aI1
aI1
aI1
aI1
aI1
aI0
aI0
aI0
aI0
aI0
aI0
aI0
aI0
aI0
aI0
aI0
aI0
aI0
aI-1
aI-1
aI-1
aI-1
aI-1
aI-1
aI-1
aI-1
aI0
aI1
aI1
aI1
aI1
aI1
aI1
aI1
aI1
aI1
aI1
aI1
aI1
aI1
aI1
aI1
aI1
aI1
aI1
aI-1
aI-1
aI-1
aI-1
aI-1
aI-1
aI-1
aI-1
aI-1
aI1
aI1
aI1
aI1
aI1
aI1
aI1
aI0
aI0
aI-1
aI-1
aI-1
aI-1
aI1
aI1
aI0
aI0
aI0
aI0
aI0
aI0
aI0
aI0
aI0
aI0
aI0
aI0
aI0
aI0
aI0
aI0
aI0
aI1
aI1
aI1
aI1
aI1
aI-1
aI-1
aI0
aI1
aI1
aI1
aI0
aI0
aI-1
aI-1
aI-1
aI-1
aI-1
aI-1
aI0
aI-1
aI0
aI0
aI0
aI0
aI0
aI0
aI0
aI0
aI0
aI-1
aI-1
aI-1
aI-1
aI-1
aI-1
aI-1
aI-1
aI-1
aI-1
aI-1
aI-1
aI-1
aI-1
aI-1
aI-1
aI-1
aI-1
aI-1
aI-1
aI0
aI0
aI-1
aI0
aI0
aI0
aI0
aI0
aI0
aI0
aI0
aI0
aI0
aI0
aI0
aI0
aI0
aI0
aI0
aI0
aI0
aI0
aI-1
aI-1
aI-1
aI-1
aI-1
aI-1
aI-1
aI-1
aI-1
aI-1
aI0
aI0
aI0
aI0
aI-1
aI-1
aI-1
aI-1
aI0
aI-1
aI-1
aI-1
aI-1
aI-1
aI-1
aI0
aI0
aI1
aI1
aI1
aI1
aI1
aI1
aI1
aI-1
aI-1
aI-1
aI-1
aI-1
aI-1
aI-1
aI-1
aI-1
aI-1
aI-1
aI-1
aI-1
aI1
aI-1
aI0
aI0
aI0
aI0
aI0
aI0
aI1
aI1
aI1
aI1
aI0
aI0
aI1
aI1
aI1
aI0
aI1
aI1
aI0
aI0
aI0
aI0
aI0
aI0
aI0
aI0
aI0
aI1
aI-1
aI1
aI1
aI1
aI1
aI0
aI0
aI0
aI0
aI1
aI1
aI1
aI-1
aI-1
aI1
aI1
aI0
aI1
aI1
aI0
aI0
aI0
aI0
aI0
aI0
aI1
aI-1
aI0
aI0
aI0
aI0
aI0
aI0
aI0
aI0
aI0
aI1
aI-1
aI-1
aI-1
aI0
aI0
aI0
aI0
aI0
aI0
aI0
aI0
aI1
aI1
aI-1
aI-1
aI0
aI0
aI0
aI0
aI0
aI1
aI-1
aI0
aI0
aI0
aI0
aI0
aI-1
aI-1
aI0
aI0
aI0
aI0
aI-1
aI-1
aI-1
aI-1
aI-1
aI0
aI0
aI0
aI1
aI-1
aI-1
aI-1
aI-1
aI-1
aI-1
aI-1
aI0
aI0
aI1
aI-1
aI-1
aI-1
aI-1
aI-1
aI-1
aI-1
aI-1
aI0
aI1
aI-1
aI-1
aI-1
aI-1
aI-1
aI0
aI1
aI-1
aI-1
aI-1
aI-1
aI1
aI-1
aI0
aI-1
aI-1
aI1
aI1
aI-1
aI-1
aI-1
aI1
aI1
aI1
aI-1
aI1
aI1
aI0
aI1
aI1
aI0
aI-1
aI0
aI0
aI0
aI-1
aI-1
aI-1
aI1
aI1
aI1
aI1
aI0
aI0
aI0
aI-1
aI1
aI1
aI0
aI0
aI0
aI0
aI-1
aI-1
aI-1
aI-1
aI1
aI1
aI1
aI0
aI0
aI0
aI-1
aI-1
aI-1
aI-1
aI-1
aI-1
aI-1
aI1
aI1
aI1
aI1
aI1
aI-1
aI-1
aI-1
aI-1
aI-1
aI0
aI0
aI1
aI1
aI1
aI1
aI-1
aI-1
aI-1
aI-1
aI-1
aI1
aI-1
aI-1
aI-1
aI0
aI0
aI-1
aI-1
aI0
aI0
aI0
aI1
aI-1
aI0
aI0
aI0
aI1
aI-1
aI-1
aI-1
aI-1
aI-1
aI-1
aI-1
aI-1
aI-1
aI-1
aI1
aI1
aI0
aI0
aI-1
aI0
aI0
aI0
aI-1
aI-1
aI-1
aI0
aI0
aI-1
aI-1
aI-1
aI-1
aI-1
aI-1
aI-1
aI-1
aI-1
aI-1
aI-1
aI-1
aI-1
aI-1
aI-1
aI-1
aI1
aI0
aI-1
aI0
aI-1
aI-1
aI-1
aI-1
aI-1
aI-1
aI-1
aI-1
aI-1
aI-1
aI-1
aI-1
aI-1
aI-1
aI-1
aI-1
aI-1
aI-1
aI-1
aI-1
aI-1
aI-1
aI-1
aI-1
aI-1
aI-1
aI1
aI1
aI-1
aI-1
aI1
aI-1
aI-1
aI-1
aI-1
aI-1
aI-1
aI-1
aI-1
aI-1
aI-1
aI-1
aI-1
aI-1
aI-1
aI-1
aI-1
aI-1
aI-1
aI-1
aI-1
aI-1
aI-1
aI-1
aI-1
aI-1
aI-1
aI-1
aI-1
aI-1
aI-1
aI-1
aI-1
aI-1
aI-1
aI-1
aI-1
aI-1
aI-1
aI-1
aI-1
aI-1
aI-1
aI-1
aI-1
aI-1
aI-1
aI-1
aI-1
aI-1
aI-1
aI-1
aI-1
aI-1
aI-1
aI-1
aI-1
aI-1
aI-1
aI-1
aI-1
aI-1
aI-1
aI-1
aI-1
aI-1
aI-1
aI-1
aI-1
aI-1
aI-1
aI-1
aI-1
aI-1
aI-1
aI0
aI0
aI0
aI0
aI0
aI0
aI1
aI0
aI0
aI0
aI0
aI0
aI0
aI0
aI1
aI1
aI1
aI1
aI1
aI0
aI0
aI-1
aI-1
aI0
aI-1
aI0
aI1
aI1
aI1
aI0
aI0
aI-1
aI0
aI1
aI1
aI1
aI1
aI0
aI0
aI-1
aI-1
aI-1
aI-1
aI-1
aI-1
aI-1
aI-1
aI-1
aI-1
aI-1
aI-1
aI0
aI0
aI1
aI1
aI1
aI1
aI1
aI0
aI1
aI1
aI0
aI0
aI0
aI0
aI0
aI0
aI0
aI1
aI1
aI0
aI-1
aI-1
aI-1
aI-1
aI-1
aI-1
aI-1
aI-1
aI-1
aI-1
aI-1
aI-1
aI0
aI1
aI1
aI1
aI1
aI1
aI1
aI1
aI1
aI1
aI0
aI0
aI-1
aI-1
aI-1
aI-1
aI-1
aI-1
aI-1
aI-1
aI-1
aI-1
aI-1
aI1
aI-1
aI-1
aI1
aI1
aI-1
aI-1
aI-1
aI1
aI-1
aI-1
aI-1
aI1
aI1
aI-1
aI-1
aI-1
aI-1
aI-1
aI-1
aI-1
aI-1
aI-1
aI-1
aI-1
aI-1
aI-1
aI-1
aI-1
aI-1
aI-1
aI-1
aI-1
aI-1
aI-1
aI-1
aI-1
aI-1
aI1
aI-1
aI-1
aI-1
aI-1
aI-1
aI1
aI1
aI1
aI1
aI1
aI-1
aI-1
aI1
aI-1
aI-1
aI-1
aI1
aI-1
aI-1
aI-1
aI1
aI-1
aI-1
aI-1
aI-1
aI1
aI-1
aI-1
aI-1
aI-1
aI-1
aI-1
aI-1
aI-1
aI-1
aI-1
aI-1
aI-1
aI-1
aI1
aI1
aI-1
aI-1
aI1
aI-1
aI-1
aI-1
aI-1
aI-1
aI-1
aI1
aI-1
aI-1
aI-1
aI-1
aI-1
aI1
aI-1
aI-1
aI0
aI0
aI1
aI-1
aI1
aI1
aI0
aI1
aI1
aI1
aI0
aI0
aI1
aI0
aI0
aI0
aI0
aI1
aI0
aI-1
aI1
aI1
aI1
aI1
aI1
aI-1
aI0
aI1
aI1
aI1
aI1
aI1
aI1
aI1
aI1
aI1
aI1
aI1
aI1
aI1
aI1
aI1
aI1
aI-1
aI1
aI1
aI1
aI0
aI1
aI1
aI1
aI1
aI0
aI0
aI0
aI0
aI0
aI1
aI0
aI0
aI0
aI0
aI1
aI1
aI1
aI-1
aI1
aI1
aI1
aI0
aI-1
aI1
aI-1
aI-1
aI-1
aI1
aI1
aI1
aI1
aI-1
aI0
aI1
aI1
aI-1
aI-1
aI-1
aI-1
aI-1
aI-1
aI-1
aI0
aI1
aI1
aI1
aI1
aI0
aI1
aI1
aI1
aI-1
aI-1
aI-1
aI1
aI1
aI1
aI1
aI1
aI0
aI0
aI-1
aI0
aI1
aI1
aI1
aI1
aI1
aI1
aI0
aI1
aI1
aI1
aI0
aI0
aI1
aI0
aI1
aI1
aI1
aI1
aI0
aI0
aI0
aI1
aI1
aI1
aI1
aI1
aI1
aI0
aI0
aI0
aI1
aI-1
aI-1
aI0
aI0
aI0
aI0
aI0
aI0
aI0
aI1
aI1
aI0
aI0
aI1
aI-1
aI1
aI0
aI0
aI1
aI0
aI0
aI-1
aI1
aI0
aI1
aI1
aI1
aI1
aI1
aI1
aI1
aI0
aI0
aI1
aI1
aI1
aI0
aI0
aI0
aI0
aI0
aI-1
aI0
aI0
aI0
aI0
aI0
aI1
aI1
aI1
aI0
aI0
aI0
aI0
aI0
aI0
aI-1
aI-1
aI-1
aI0
aI1
aI0
aI-1
aI0
aI0
aI-1
aI0
aI-1
aI-1
aI1
aI-1
aI0
aI-1
aI-1
aI0
aI0
aI-1
aI-1
aI-1
aI0
aI0
aI0
aI-1
aI-1
aI-1
aI-1
aI-1
aI-1
aI0
aI-1
aI-1
aI-1
aI-1
aI-1
aI-1
aI-1
aI-1
aI-1
aI-1
aI-1
aI-1
aI0
aI0
aI-1
aI-1
aI-1
aI-1
aI-1
aI-1
aI-1
aI-1
aI-1
aI-1
aI-1
aI-1
aI0
aI-1
aI-1
aI-1
aI-1
aI-1
aI-1
aI-1
aI-1
aI-1
aI0
aI-1
aI-1
aI-1
aI-1
aI-1
aI-1
aI-1
aI-1
aI-1
aI-1
aI-1
aI-1
aI-1
aI-1
aI-1
aI0
aI0
aI-1
aI-1
aI-1
aI0
aI0
aI-1
aI-1
aI-1
aI-1
aI-1
aI-1
aI-1
aI-1
aI-1
aI-1
aI-1
aI-1
aI-1
aI-1
aI-1
aI-1
aI-1
aI-1
aI-1
aI-1
aI-1
aI-1
aI-1
aI-1
aI0
aI0
aI-1
aI1
aI0
aI-1
aI-1
aI-1
aI-1
aI-1
aI-1
aI-1
aI-1
aI-1
aI-1
aI1
aI-1
aI-1
aI-1
aI-1
aI-1
aI-1
aI-1
aI-1
aI-1
aI-1
aI-1
aI0
aI-1
aI-1
aI-1
aI-1
aI-1
aI-1
aI-1
aI-1
aI-1
aI-1
aI-1
aI-1
aI-1
aI-1
aI0
aI-1
aI-1
aI0
aI1
aI1
aI1
aI1
aI-1
aI-1
aI-1
aI-1
aI-1
aI-1
aI-1
aI-1
aI-1
aI-1
aI-1
aI-1
aI-1
aI-1
aI-1
aI-1
aI-1
aI-1
aI0
aI0
aI1
aI1
aI1
aI1
aI-1
aI-1
aI-1
aI-1
aI-1
aI-1
aI-1
aI-1
aI-1
as.